
main.elf:     file format elf32-avr

SYMBOL TABLE:
00007000 l    d  .text	00000000 .text
00800060 l    d  .data	00000000 .data
00800066 l    d  .bss	00000000 .bss
0080009b l    d  .noinit	00000000 .noinit
00000000 l    d  .comment	00000000 .comment
00000000 l    d  .note.gnu.avr.deviceinfo	00000000 .note.gnu.avr.deviceinfo
00000000 l    d  .debug_aranges	00000000 .debug_aranges
00000000 l    d  .debug_info	00000000 .debug_info
00000000 l    d  .debug_abbrev	00000000 .debug_abbrev
00000000 l    d  .debug_line	00000000 .debug_line
00000000 l    d  .debug_frame	00000000 .debug_frame
00000000 l    d  .debug_str	00000000 .debug_str
00000000 l    d  .debug_loc	00000000 .debug_loc
00000000 l    d  .debug_ranges	00000000 .debug_ranges
00000000 l    d  .debug_macro	00000000 .debug_macro
00000000 l    df *ABS*	00000000 crtatmega32.o
00000000 l       .debug_abbrev	00000000 .Ldebug_abbrev0
00000000 l       .debug_str	00000000 .Lproducer
00000000 l       .debug_line	00000000 .Ldebug_line0
0000000f l       .debug_str	00000000 .Luint8_t_name
00000017 l       .debug_str	00000000 .Luint16_t_name
00000020 l       .debug_str	00000000 .Lname6
00000029 l       .debug_str	00000000 .Lname7
0000002e l       .debug_str	00000000 .Lname8
00000033 l       .debug_str	00000000 .Lname9
00000038 l       .debug_str	00000000 .Lname10
0000003e l       .debug_str	00000000 .Lname11
00000043 l       .debug_str	00000000 .Lname12
00000048 l       .debug_str	00000000 .Lname13
0000004e l       .debug_str	00000000 .Lname14
00000055 l       .debug_str	00000000 .Lname15
0000005b l       .debug_str	00000000 .Lname16
00000061 l       .debug_str	00000000 .Lname17
00000066 l       .debug_str	00000000 .Lname18
0000006c l       .debug_str	00000000 .Lname19
00000071 l       .debug_str	00000000 .Lname20
00000077 l       .debug_str	00000000 .Lname21
0000007c l       .debug_str	00000000 .Lname22
00000082 l       .debug_str	00000000 .Lname23
00000088 l       .debug_str	00000000 .Lname24
0000008d l       .debug_str	00000000 .Lname25
00000092 l       .debug_str	00000000 .Lname26
00000098 l       .debug_str	00000000 .Lname27
0000009d l       .debug_str	00000000 .Lname28
000000a4 l       .debug_str	00000000 .Lname29
000000ab l       .debug_str	00000000 .Lname30
000000b1 l       .debug_str	00000000 .Lname31
000000b7 l       .debug_str	00000000 .Lname32
000000bd l       .debug_str	00000000 .Lname33
000000c2 l       .debug_str	00000000 .Lname34
000000c7 l       .debug_str	00000000 .Lname35
000000cc l       .debug_str	00000000 .Lname36
000000d1 l       .debug_str	00000000 .Lname37
000000d5 l       .debug_str	00000000 .Lname38
000000db l       .debug_str	00000000 .Lname39
000000e1 l       .debug_str	00000000 .Lname40
000000e7 l       .debug_str	00000000 .Lname41
000000ed l       .debug_str	00000000 .Lname42
000000f3 l       .debug_str	00000000 .Lname43
000000f9 l       .debug_str	00000000 .Lname44
000000fe l       .debug_str	00000000 .Lname45
00000104 l       .debug_str	00000000 .Lname46
0000010b l       .debug_str	00000000 .Lname47
0000010f l       .debug_str	00000000 .Lname48
00000115 l       .debug_str	00000000 .Lname49
0000011b l       .debug_str	00000000 .Lname50
00000120 l       .debug_str	00000000 .Lname51
00000125 l       .debug_str	00000000 .Lname52
0000012b l       .debug_str	00000000 .Lname53
00000130 l       .debug_str	00000000 .Lname54
00000135 l       .debug_str	00000000 .Lname55
0000013b l       .debug_str	00000000 .Lname56
00000140 l       .debug_str	00000000 .Lname57
00000145 l       .debug_str	00000000 .Lname58
0000014b l       .debug_str	00000000 .Lname59
00000150 l       .debug_str	00000000 .Lname60
00000155 l       .debug_str	00000000 .Lname61
0000015a l       .debug_str	00000000 .Lname62
0000015d l       .debug_str	00000000 .Lname63
00000163 l       .debug_str	00000000 .Lname64
0000016a l       .debug_str	00000000 .Lname65
00000171 l       .debug_str	00000000 .Lname66
00000177 l       .debug_str	00000000 .Lname67
0000017d l       .debug_str	00000000 .Lname68
00000182 l       .debug_str	00000000 .Lname69
00000187 l       .debug_str	00000000 .Lname70
0000018c l       .debug_str	00000000 .Lname71
00000191 l       .debug_str	00000000 .Lname72
00000000 l    df *ABS*	00000000 main.c
0000003e l       *ABS*	00000000 __SP_H__
0000003d l       *ABS*	00000000 __SP_L__
0000003f l       *ABS*	00000000 __SREG__
00000000 l       *ABS*	00000000 __tmp_reg__
00000001 l       *ABS*	00000000 __zero_reg__
000070d0 l       .text	00000000 .Loc.0
000070d0 l       .text	00000000 L0
000070d0 l       .text	00000000 .Loc.1
000070e0 l       .text	00000000 __BOOTLOADERENTRY_FROMSOFTWARE__bootup_investigate_RAMEND_done6
000070de l       .text	00000000 __BOOTLOADERENTRY_FROMSOFTWARE__bootup_investigate_RAMEND_mismatch6
0080009c l     O .noinit	00000001 __BOOTLOADERENTRY_FROMSOFTWARE__bootup_RAMEND_doesmatch
0080009b l     O .noinit	00000001 __BOOTLOADERENTRY_FROMSOFTWARE__bootup_MCUCSR
000070e8 l       .text	00000000 .Loc.2
000070e8 l       .text	00000000 L0
0000736e l       .text	00000000 .Loc.3
0000736e l       .text	00000000 L0
0000736e l       .text	00000000 .Loc.4
00007370 l       .text	00000000 .Loc.5
00007370 l       .text	00000000 .Loc.6
00007370 l       .text	00000000 .Loc.7
00007370 l       .text	00000000 .Loc.8
00007376 l       .text	00000000 .Loc.9
00007376 l       .text	00000000 .Loc.10
0000737c l       .text	00000000 .Loc.11
00007384 l       .text	00000000 .Loc.12
0000738a l       .text	00000000 .Loc.13
0000738a l       .text	00000000 .Loc.14
00007390 l       .text	00000000 .Loc.15
00007394 l       .text	00000000 .Loc.16
00007394 l       .text	00000000 .Loc.17
00007394 l       .text	00000000 .Loc.18
00007396 l       .text	00000000 .Loc.19
0000739a l       .text	00000000 .Loc.20
00800062 l     O .data	00000004 signatureBytes
000073a0 l       .text	00000000 .Loc.21
000073a2 l       .text	00000000 .Loc.22
000073a2 l       .text	00000000 .Loc.23
000073a6 l       .text	00000000 .Loc.24
000073ac l       .text	00000000 .Loc.25
000073b0 l       .text	00000000 .Loc.26
000073b0 l       .text	00000000 .Loc.27
000073b6 l       .text	00000000 .Loc.28
000073ba l       .text	00000000 .Loc.29
000073bc l       .text	00000000 .Loc.30
000073bc l       .text	00000000 .Loc.31
000073bc l       .text	00000000 .Loc.32
000073be l       .text	00000000 .Loc.33
000073be l       .text	00000000 .Loc.34
000073c2 l       .text	00000000 .Loc.35
000073c6 l       .text	00000000 .Loc.36
000073c6 l       .text	00000000 .Loc.37
000073c6 l       .text	00000000 .Loc.38
000073d2 l       .text	00000000 .Loc.39
000073d2 l       .text	00000000 .Loc.40
000073d2 l       .text	00000000 .Loc.41
000073d4 l       .text	00000000 .Loc.42
000073d4 l       .text	00000000 .Loc.43
000073d4 l       .text	00000000 .Loc.44
000073d8 l       .text	00000000 .Loc.45
000073d8 l       .text	00000000 .Loc.46
000073d8 l       .text	00000000 .Loc.47
000073d8 l       .text	00000000 .Loc.48
000073dc l       .text	00000000 .Loc.49
000073dc l       .text	00000000 .Loc.50
000073e0 l       .text	00000000 .Loc.51
000073e0 l       .text	00000000 .Loc.52
000073e2 l       .text	00000000 .Loc.53
000073e2 l       .text	00000000 .Loc.54
000073e6 l       .text	00000000 .Loc.55
000073e6 l       .text	00000000 .Loc.56
000073e6 l       .text	00000000 .Loc.57
000073e6 l       .text	00000000 .Loc.58
000073ea l       .text	00000000 .Loc.59
000073ec l       .text	00000000 .Loc.60
000073ee l       .text	00000000 .Loc.61
000073ee l       .text	00000000 .Loc.62
000073ee l       .text	00000000 .Loc.63
000073f2 l       .text	00000000 .Loc.64
000073f2 l       .text	00000000 .Loc.65
000073f4 l       .text	00000000 .Loc.66
000073f4 l       .text	00000000 .Loc.67
000073f8 l       .text	00000000 .Loc.68
000073fe l       .text	00000000 .Loc.69
00007400 l       .text	00000000 .Loc.70
00007400 l       .text	00000000 .Loc.71
00007404 l       .text	00000000 .Loc.72
00007404 l       .text	00000000 .Loc.73
0080006f l     O .bss	00000001 stayinloader
0000740c l       .text	00000000 L0
0000740c l       .text	00000000 .Loc.74
0000740c l       .text	00000000 L0
0000740c l       .text	00000000 .Loc.75
0000740c l       .text	00000000 .Loc.76
0000740c l       .text	00000000 .Loc.77
0000740c l       .text	00000000 .Loc.78
0000740e l       .text	00000000 .Loc.79
0000740e l       .text	00000000 .Loc.80
00007412 l       .text	00000000 .Loc.81
00007412 l       .text	00000000 .Loc.82
00007412 l       .text	00000000 .Loc.83
00007412 l       .text	00000000 .Loc.84
00007416 l       .text	00000000 .Loc.85
00007416 l       .text	00000000 .Loc.86
0000741a l       .text	00000000 .Loc.87
0000741a l       .text	00000000 .Loc.88
0000741a l       .text	00000000 .Loc.89
0000741e l       .text	00000000 _mywait_sleeploop227
00007426 l       .text	00000000 .Loc.90
00007426 l       .text	00000000 .Loc.91
00007426 l       .text	00000000 .Loc.92
00007426 l       .text	00000000 .Loc.93
00007426 l       .text	00000000 .Loc.94
0000742c l       .text	00000000 .Loc.95
0000742e l       .text	00000000 .Loc.96
0000742e l       .text	00000000 .Loc.97
00007432 l       .text	00000000 .Loc.98
00007436 l       .text	00000000 .Loc.99
00007436 l       .text	00000000 .Loc.100
0000743a l       .text	00000000 .Loc.101
0000743a l       .text	00000000 .Loc.102
0000743a l       .text	00000000 .Loc.103
0000743a l       .text	00000000 .Loc.104
0000743c l       .text	00000000 .Loc.105
0000743e l       .text	00000000 .Loc.106
0000743e l       .text	00000000 .Loc.107
0000743e l       .text	00000000 .Loc.108
0000743e l       .text	00000000 .Loc.109
00007440 l       .text	00000000 .Loc.110
00007440 l       .text	00000000 .Loc.111
00007442 l       .text	00000000 .Loc.112
00007442 l       .text	00000000 .Loc.113
00007444 l       .text	00000000 .Loc.114
00007444 l       .text	00000000 .Loc.115
00007448 l       .text	00000000 .Loc.116
00007448 l       .text	00000000 .Loc.117
0000744a l       .text	00000000 .Loc.118
00007450 l       .text	00000000 .Loc.119
00007450 l       .text	00000000 .Loc.120
00007456 l       .text	00000000 .Loc.121
00007456 l       .text	00000000 .Loc.122
00007458 l       .text	00000000 .Loc.123
00007458 l       .text	00000000 .Loc.124
00007458 l       .text	00000000 .Loc.125
00007458 l       .text	00000000 .Loc.126
00007458 l       .text	00000000 .Loc.127
00007468 l       .text	00000000 .Loc.128
00007468 l       .text	00000000 .Loc.129
00007468 l       .text	00000000 .Loc.130
00007468 l       .text	00000000 .Loc.131
00007468 l       .text	00000000 .Loc.132
00007468 l       .text	00000000 .Loc.133
0000746e l       .text	00000000 .Loc.134
0000746e l       .text	00000000 .Loc.135
00007474 l       .text	00000000 .Loc.136
00007474 l       .text	00000000 .Loc.137
00007474 l       .text	00000000 .Loc.138
00007476 l       .text	00000000 .Loc.139
00007476 l       .text	00000000 .Loc.140
00007476 l       .text	00000000 .Loc.141
0000747c l       .text	00000000 _mywait_sleeploop350
00007484 l       .text	00000000 .Loc.142
00007484 l       .text	00000000 .Loc.143
00007486 l       .text	00000000 .Loc.144
00007488 l       .text	00000000 .Loc.145
00007488 l       .text	00000000 .Loc.146
00007488 l       .text	00000000 .Loc.147
00007488 l       .text	00000000 .Loc.148
00007488 l       .text	00000000 .Loc.149
00007488 l       .text	00000000 .Loc.150
00007488 l       .text	00000000 .Loc.151
0000748e l       .text	00000000 .Loc.152
0000748e l       .text	00000000 .Loc.153
00007492 l       .text	00000000 .Loc.154
00007492 l       .text	00000000 .Loc.155
0000749e l       .text	00000000 .Loc.156
000074a2 l       .text	00000000 .Loc.157
000074a2 l       .text	00000000 .Loc.158
000074a2 l       .text	00000000 .Loc.159
000074a2 l       .text	00000000 .Loc.160
000074a2 l       .text	00000000 .Loc.161
000074aa l       .text	00000000 L0
000074ac l       .text	00000000 .Loc.162
000074ac l       .text	00000000 .Loc.163
000074b0 l       .text	00000000 L0
000074b2 l       .text	00000000 .Loc.164
000074b2 l       .text	00000000 .Loc.165
000074b2 l       .text	00000000 .Loc.166
000074b8 l       .text	00000000 .Loc.167
000074b8 l       .text	00000000 .Loc.168
000074be l       .text	00000000 .Loc.169
000074be l       .text	00000000 .Loc.170
00800070 l     O .bss	00000001 usbMsgFlags
000074c2 l       .text	00000000 .Loc.171
000074c2 l       .text	00000000 .Loc.172
000074c4 l       .text	00000000 .Loc.173
000074c8 l       .text	00000000 .Loc.174
000074ca l       .text	00000000 .Loc.175
000074ce l       .text	00000000 L0
000074d0 l       .text	00000000 .Loc.176
000074d0 l       .text	00000000 .Loc.177
000074d0 l       .text	00000000 .Loc.178
000074d0 l       .text	00000000 .Loc.179
000074d0 l       .text	00000000 .Loc.180
000074d0 l       .text	00000000 .Loc.181
000074d0 l       .text	00000000 .Loc.182
00800066 l     O .bss	00000004 replyBuffer.2297
000074dc l       .text	00000000 .Loc.183
000074dc l       .text	00000000 .Loc.184
000074e0 l       .text	00000000 .Loc.185
000074e0 l       .text	00000000 .Loc.186
000074e2 l       .text	00000000 .Loc.187
000074e4 l       .text	00000000 .Loc.188
000074e8 l       .text	00000000 .Loc.189
000074e8 l       .text	00000000 .Loc.190
000074e8 l       .text	00000000 .Loc.191
000074e8 l       .text	00000000 .Loc.192
000074ea l       .text	00000000 .Loc.193
000074ea l       .text	00000000 .Loc.194
000074ea l       .text	00000000 .Loc.195
000074ea l       .text	00000000 .Loc.196
000074fa l       .text	00000000 .Loc.197
000074fa l       .text	00000000 .Loc.198
000074fe l       .text	00000000 L0
00007500 l       .text	00000000 .Loc.199
00007504 l       .text	00000000 L0
00007506 l       .text	00000000 .Loc.200
00007506 l       .text	00000000 .Loc.201
00007508 l       .text	00000000 .Loc.202
0000750a l       .text	00000000 .Loc.203
0000750e l       .text	00000000 L0
00007510 l       .text	00000000 .Loc.204
00007510 l       .text	00000000 .Loc.205
0080006d l     O .bss	00000002 currentAddress
0000751c l       .text	00000000 .Loc.206
0000751c l       .text	00000000 .Loc.207
00007520 l       .text	00000000 L0
00007522 l       .text	00000000 .Loc.208
00007522 l       .text	00000000 .Loc.209
00007524 l       .text	00000000 .Loc.210
0080006c l     O .bss	00000001 bytesRemaining
00007528 l       .text	00000000 .Loc.211
00007528 l       .text	00000000 .Loc.212
0000752c l       .text	00000000 .Loc.213
0080006b l     O .bss	00000001 isLastPage
00007530 l       .text	00000000 .Loc.214
00007530 l       .text	00000000 .Loc.215
0080006a l     O .bss	00000001 currentRequest
00007534 l       .text	00000000 .Loc.216
00007534 l       .text	00000000 .Loc.217
00007534 l       .text	00000000 .Loc.218
00007534 l       .text	00000000 .Loc.219
00007534 l       .text	00000000 .Loc.220
00007538 l       .text	00000000 .Loc.221
00007538 l       .text	00000000 .Loc.222
0000753e l       .text	00000000 .Loc.223
0000753e l       .text	00000000 .Loc.224
00800060 l     O .data	00000001 usbMsgLen
00007542 l       .text	00000000 .Loc.225
00007542 l       .text	00000000 .Loc.226
00007542 l       .text	00000000 .Loc.227
00007546 l       .text	00000000 .Loc.228
00007546 l       .text	00000000 .Loc.229
0000754a l       .text	00000000 .Loc.230
0000754e l       .text	00000000 .Loc.231
0000754e l       .text	00000000 .Loc.232
00007552 l       .text	00000000 .Loc.233
00007556 l       .text	00000000 .Loc.234
00007556 l       .text	00000000 .Loc.235
00007556 l       .text	00000000 .Loc.236
00007556 l       .text	00000000 .Loc.237
00007556 l       .text	00000000 .Loc.238
00007556 l       .text	00000000 .Loc.239
0000755e l       .text	00000000 .Loc.240
0000755e l       .text	00000000 .Loc.241
00007566 l       .text	00000000 .Loc.242
00007566 l       .text	00000000 .Loc.243
00007572 l       .text	00000000 .Loc.244
00007572 l       .text	00000000 .Loc.245
00007572 l       .text	00000000 .Loc.246
00007572 l       .text	00000000 .Loc.247
00007576 l       .text	00000000 .Loc.248
00007576 l       .text	00000000 .Loc.249
0000757a l       .text	00000000 .Loc.250
0000757e l       .text	00000000 .Loc.251
0000757e l       .text	00000000 .Loc.252
0000757e l       .text	00000000 .Loc.253
0000757e l       .text	00000000 .Loc.254
0000757e l       .text	00000000 .Loc.255
0000758a l       .text	00000000 .Loc.256
0000758a l       .text	00000000 .Loc.257
00007590 l       .text	00000000 .Loc.258
00007590 l       .text	00000000 .Loc.259
00007594 l       .text	00000000 .Loc.260
00007596 l       .text	00000000 .Loc.261
0000759e l       .text	00000000 .Loc.262
0000759e l       .text	00000000 .Loc.263
000075a2 l       .text	00000000 .Loc.264
000075a2 l       .text	00000000 .Loc.265
000075aa l       .text	00000000 .Loc.266
000075aa l       .text	00000000 .Loc.267
000075ac l       .text	00000000 .Loc.268
000075ac l       .text	00000000 .Loc.269
000075b0 l       .text	00000000 .Loc.270
000075b0 l       .text	00000000 .Loc.271
000075b6 l       .text	00000000 .Loc.272
000075b6 l       .text	00000000 .Loc.273
000075ba l       .text	00000000 .Loc.274
000075ba l       .text	00000000 .Loc.275
000075ba l       .text	00000000 .Loc.276
000075ba l       .text	00000000 .Loc.277
000075ba l       .text	00000000 .Loc.278
000075bc l       .text	00000000 .Loc.279
000075bc l       .text	00000000 .Loc.280
000075bc l       .text	00000000 .Loc.281
000075be l       .text	00000000 .Loc.282
000075be l       .text	00000000 .Loc.283
000075c0 l       .text	00000000 .Loc.284
000075c2 l       .text	00000000 .Loc.285
000075c2 l       .text	00000000 .Loc.286
000075c4 l       .text	00000000 .Loc.287
000075c6 l       .text	00000000 .Loc.288
000075c6 l       .text	00000000 .Loc.289
000075ca l       .text	00000000 .Loc.290
000075ca l       .text	00000000 .Loc.291
000075ce l       .text	00000000 .Loc.292
000075ce l       .text	00000000 .Loc.293
000075ce l       .text	00000000 .Loc.294
000075ce l       .text	00000000 .Loc.295
000075ce l       .text	00000000 .Loc.296
000075ce l       .text	00000000 .Loc.297
000075ce l       .text	00000000 .Loc.298
000075ce l       .text	00000000 .Loc.299
000075d2 l       .text	00000000 .Loc.300
000075d6 l       .text	00000000 L0
000075d8 l       .text	00000000 .Loc.301
000075d8 l       .text	00000000 .Loc.302
000075dc l       .text	00000000 .Loc.303
000075dc l       .text	00000000 .Loc.304
000075e2 l       .text	00000000 .Loc.305
000075e6 l       .text	00000000 .Loc.306
000075e6 l       .text	00000000 .Loc.307
000075ea l       .text	00000000 .Loc.308
000075f0 l       .text	00000000 .Loc.309
000075f0 l       .text	00000000 .Loc.310
000075f4 l       .text	00000000 .Loc.311
000075f8 l       .text	00000000 .Loc.312
000075f8 l       .text	00000000 .Loc.313
000075fa l       .text	00000000 .Loc.314
000075fe l       .text	00000000 .Loc.315
000075fe l       .text	00000000 .Loc.316
000075fe l       .text	00000000 .Loc.317
00007602 l       .text	00000000 .Loc.318
00007602 l       .text	00000000 .Loc.319
00007606 l       .text	00000000 .Loc.320
00007606 l       .text	00000000 .Loc.321
00007606 l       .text	00000000 .Loc.322
00007606 l       .text	00000000 .Loc.323
00007606 l       .text	00000000 .Loc.324
00007606 l       .text	00000000 .Loc.325
00007606 l       .text	00000000 .Loc.326
00007608 l       .text	00000000 .Loc.327
00007608 l       .text	00000000 .Loc.328
0000760c l       .text	00000000 .Loc.329
0000760c l       .text	00000000 .Loc.330
0000760c l       .text	00000000 .Loc.331
00007610 l       .text	00000000 .Loc.332
00007610 l       .text	00000000 .Loc.333
00007610 l       .text	00000000 .Loc.334
00007610 l       .text	00000000 .Loc.335
00007614 l       .text	00000000 .Loc.336
00007614 l       .text	00000000 .Loc.337
00007614 l       .text	00000000 .Loc.338
00007618 l       .text	00000000 .Loc.339
0000761a l       .text	00000000 .Loc.340
0000761a l       .text	00000000 .Loc.341
0000761a l       .text	00000000 .Loc.342
0000761a l       .text	00000000 .Loc.343
00007624 l       .text	00000000 .Loc.344
00007628 l       .text	00000000 .Loc.345
00007628 l       .text	00000000 .Loc.346
0000762c l       .text	00000000 .Loc.347
0000762c l       .text	00000000 .Loc.348
0000762c l       .text	00000000 .Loc.349
00007630 l       .text	00000000 .Loc.350
00007632 l       .text	00000000 .Loc.351
00007636 l       .text	00000000 .Loc.352
00007636 l       .text	00000000 .Loc.353
00007636 l       .text	00000000 .Loc.354
00007636 l       .text	00000000 .Loc.355
00007636 l       .text	00000000 .Loc.356
00007638 l       .text	00000000 .Loc.357
00007638 l       .text	00000000 .Loc.358
0000763c l       .text	00000000 .Loc.359
0000763c l       .text	00000000 .Loc.360
0000763c l       .text	00000000 .Loc.361
0000763c l       .text	00000000 .Loc.362
0000763c l       .text	00000000 .Loc.363
00007640 l       .text	00000000 .Loc.364
0000764a l       .text	00000000 .Loc.365
0000764a l       .text	00000000 .Loc.366
0000764a l       .text	00000000 .Loc.367
0000764c l       .text	00000000 .Loc.368
00007650 l       .text	00000000 .Loc.369
00007650 l       .text	00000000 .Loc.370
00007650 l       .text	00000000 .Loc.371
00007652 l       .text	00000000 .Loc.372
00007656 l       .text	00000000 .Loc.373
00007656 l       .text	00000000 .Loc.374
00007656 l       .text	00000000 .Loc.375
00007656 l       .text	00000000 .Loc.376
00007656 l       .text	00000000 .Loc.377
0000765a l       .text	00000000 .Loc.378
0000765c l       .text	00000000 .Loc.379
00007660 l       .text	00000000 .Loc.380
00007660 l       .text	00000000 .Loc.381
00007660 l       .text	00000000 .Loc.382
00007664 l       .text	00000000 .Loc.383
00007664 l       .text	00000000 .Loc.384
00007664 l       .text	00000000 .Loc.385
00007664 l       .text	00000000 .Loc.386
00007664 l       .text	00000000 .Loc.387
00007668 l       .text	00000000 .Loc.388
00007674 l       .text	00000000 .Loc.389
00007678 l       .text	00000000 .Loc.390
00007678 l       .text	00000000 .Loc.391
00007678 l       .text	00000000 .Loc.392
00007678 l       .text	00000000 .Loc.393
00007678 l       .text	00000000 .Loc.394
0000767c l       .text	00000000 .Loc.395
00007688 l       .text	00000000 .Loc.396
0000768c l       .text	00000000 .Loc.397
0000768c l       .text	00000000 .Loc.398
0000768c l       .text	00000000 .Loc.399
0000768c l       .text	00000000 .Loc.400
0000768c l       .text	00000000 .Loc.401
00007690 l       .text	00000000 .Loc.402
0000769c l       .text	00000000 .Loc.403
0000769c l       .text	00000000 .Loc.404
000076a0 l       .text	00000000 .Loc.405
000076a4 l       .text	00000000 .Loc.406
000076a4 l       .text	00000000 .Loc.407
000076a8 l       .text	00000000 .Loc.408
000076a8 l       .text	00000000 .Loc.409
000076aa l       .text	00000000 .Loc.410
000076ac l       .text	00000000 .Loc.411
000076b0 l       .text	00000000 L0
000076b6 l       .text	00000000 .Loc.412
000076ba l       .text	00000000 .Loc.413
000076bc l       .text	00000000 .Loc.414
000076be l       .text	00000000 .Loc.415
000076be l       .text	00000000 .Loc.416
000076c0 l       .text	00000000 .Loc.417
000076c2 l       .text	00000000 .Loc.418
000076c2 l       .text	00000000 .Loc.419
000076c2 l       .text	00000000 .Loc.420
000076ca l       .text	00000000 .Loc.421
000076ca l       .text	00000000 .Loc.422
000076ca l       .text	00000000 .Loc.423
000076ca l       .text	00000000 .Loc.424
000076ca l       .text	00000000 .Loc.425
000076ca l       .text	00000000 .Loc.426
000076d4 l       .text	00000000 .Loc.427
000076d4 l       .text	00000000 .Loc.428
000076da l       .text	00000000 .Loc.429
000076da l       .text	00000000 .Loc.430
000076da l       .text	00000000 .Loc.431
000076dc l       .text	00000000 .Loc.432
000076dc l       .text	00000000 .Loc.433
000076dc l       .text	00000000 .Loc.434
000076e0 l       .text	00000000 .Loc.435
000076e0 l       .text	00000000 .Loc.436
000076e0 l       .text	00000000 .Loc.437
000076e0 l       .text	00000000 .Loc.438
000076e4 l       .text	00000000 .Loc.439
000076e4 l       .text	00000000 .Loc.440
000076ea l       .text	00000000 .Loc.441
000076f2 l       .text	00000000 .Loc.442
000076fa l       .text	00000000 .Loc.443
000076fa l       .text	00000000 .Loc.444
000076fc l       .text	00000000 .Loc.445
0000770a l       .text	00000000 .Loc.446
0000770c l       .text	00000000 .Loc.447
0000770c l       .text	00000000 .Loc.448
0000770e l       .text	00000000 .Loc.449
00007710 l       .text	00000000 .Loc.450
00007710 l       .text	00000000 .Loc.451
00007716 l       .text	00000000 .Loc.452
00007716 l       .text	00000000 .Loc.453
0000771a l       .text	00000000 .Loc.454
0000771a l       .text	00000000 .Loc.455
0000771c l       .text	00000000 .Loc.456
00007728 l       .text	00000000 .Loc.457
00007734 l       .text	00000000 .Loc.458
00007736 l       .text	00000000 .Loc.459
00007736 l       .text	00000000 .Loc.460
00007748 l       .text	00000000 .Loc.461
00007748 l       .text	00000000 .Loc.462
00007748 l       .text	00000000 .Loc.463
0000774c l       .text	00000000 .Loc.464
00007750 l       .text	00000000 .Loc.465
00007754 l       .text	00000000 .Loc.466
00007758 l       .text	00000000 L0
0000775a l       .text	00000000 .Loc.467
00007762 l       .text	00000000 L0
00007764 l       .text	00000000 .Loc.468
00007764 l       .text	00000000 .Loc.469
00007766 l       .text	00000000 .Loc.470
00007778 l       .text	00000000 .Loc.471
0000777a l       .text	00000000 .Loc.472
0000777a l       .text	00000000 .Loc.473
0000777a l       .text	00000000 .Loc.474
00007780 l       .text	00000000 .Loc.475
00007780 l       .text	00000000 .Loc.476
00007782 l       .text	00000000 .Loc.477
00007794 l       .text	00000000 .Loc.478
00007796 l       .text	00000000 .Loc.479
00007796 l       .text	00000000 .Loc.480
00007796 l       .text	00000000 .Loc.481
0000779c l       .text	00000000 .Loc.482
0000779e l       .text	00000000 .Loc.483
000077a6 l       .text	00000000 .Loc.484
000077aa l       .text	00000000 .Loc.485
000077aa l       .text	00000000 .Loc.486
000077b2 l       .text	00000000 .Loc.487
000077b8 l       .text	00000000 .Loc.488
000077b8 l       .text	00000000 .Loc.489
000077bc l       .text	00000000 .Loc.490
000077bc l       .text	00000000 .Loc.491
000077c0 l       .text	00000000 .Loc.492
000077c0 l       .text	00000000 .Loc.493
000077c6 l       .text	00000000 .Loc.494
000077c6 l       .text	00000000 .Loc.495
000077d2 l       .text	00000000 .Loc.496
000077d2 l       .text	00000000 .Loc.497
000077d4 l       .text	00000000 .Loc.498
000077d6 l       .text	00000000 .Loc.499
000077d6 l       .text	00000000 .Loc.500
000077d6 l       .text	00000000 .Loc.501
000077d6 l       .text	00000000 .Loc.502
000077dc l       .text	00000000 .Loc.503
000077dc l       .text	00000000 .Loc.504
000077dc l       .text	00000000 .Loc.505
000077dc l       .text	00000000 .Loc.506
000077e4 l       .text	00000000 .Loc.507
000077e8 l       .text	00000000 .Loc.508
000077ec l       .text	00000000 .Loc.509
000077f0 l       .text	00000000 .Loc.510
000077f4 l       .text	00000000 .Loc.511
000077f4 l       .text	00000000 .Loc.512
000077f4 l       .text	00000000 .Loc.513
000077f4 l       .text	00000000 .Loc.514
000077f4 l       .text	00000000 .Loc.515
000077f6 l       .text	00000000 .Loc.516
000077f6 l       .text	00000000 .Loc.517
000077f6 l       .text	00000000 .Loc.518
000077f6 l       .text	00000000 .Loc.519
000077f8 l       .text	00000000 .Loc.520
000077f8 l       .text	00000000 .Loc.521
000077fa l       .text	00000000 .Loc.522
000077fa l       .text	00000000 .Loc.523
000077fa l       .text	00000000 .Loc.524
000077fe l       .text	00000000 .Loc.525
000077fe l       .text	00000000 .Loc.526
0000780a l       .text	00000000 .Loc.527
0000780a l       .text	00000000 .Loc.528
0000780a l       .text	00000000 .Loc.529
0000780c l       .text	00000000 .Loc.530
0000780e l       .text	00000000 .Loc.531
0000780e l       .text	00000000 .Loc.532
0000780e l       .text	00000000 .Loc.533
00007814 l       .text	00000000 .Loc.534
00007814 l       .text	00000000 .Loc.535
00007814 l       .text	00000000 .Loc.536
00007818 l       .text	00000000 .Loc.537
00007818 l       .text	00000000 .Loc.538
0000781c l       .text	00000000 .Loc.539
00007820 l       .text	00000000 L0
00007822 l       .text	00000000 .Loc.540
00007822 l       .text	00000000 .Loc.541
0000782a l       .text	00000000 L0
000070e8 l       .text	00000000 L0
0000740c l       .text	00000000 L0
0000782a l       .text	00000000 L0
00000000 l       .debug_frame	00000000 L0
000073a2 l       .text	00000000 .L3
000073be l       .text	00000000 .L5
000073cc l       .text	00000000 .L15
000073d4 l       .text	00000000 .L7
000073ba l       .text	00000000 .L14
000073e2 l       .text	00000000 .L8
000073ee l       .text	00000000 .L9
000073dc l       .text	00000000 .L16
000073f4 l       .text	00000000 .L10
00007400 l       .text	00000000 .L11
00007436 l       .text	00000000 .L18
00007450 l       .text	00000000 .L19
00007546 l       .text	00000000 .L20
000076c2 l       .text	00000000 .L21
00007542 l       .text	00000000 .L23
00007606 l       .text	00000000 .L24
000074fa l       .text	00000000 .L25
0000753e l       .text	00000000 .L42
000076be l       .text	00000000 .L74
000075f0 l       .text	00000000 .L27
000075fe l       .text	00000000 .L75
000075ba l       .text	00000000 .L54
0000755e l       .text	00000000 .L55
000075a2 l       .text	00000000 .L56
000077dc l       .text	00000000 .L57
0000758a l       .text	00000000 .L58
000077aa l       .text	00000000 .L62
000075b6 l       .text	00000000 .L66
000075ce l       .text	00000000 .L67
000075bc l       .text	00000000 .L68
00007814 l       .text	00000000 .L69
000075e6 l       .text	00000000 .L70
00007488 l       .text	00000000 .L71
0000743a l       .text	00000000 .L72
00007602 l       .text	00000000 .L30
000074ea l       .text	00000000 .L26
000075fa l       .text	00000000 .L111
00007624 l       .text	00000000 .L31
00007632 l       .text	00000000 .L33
0000761a l       .text	00000000 .L32
0000769c l       .text	00000000 .L34
00007652 l       .text	00000000 .L35
0000765c l       .text	00000000 .L37
00007640 l       .text	00000000 .L108
0000764a l       .text	00000000 .L36
00007674 l       .text	00000000 .L38
00007688 l       .text	00000000 .L39
000076b6 l       .text	00000000 .L76
000076aa l       .text	00000000 .L40
0000762c l       .text	00000000 .L41
000076d4 l       .text	00000000 .L45
000076ea l       .text	00000000 .L53
00007710 l       .text	00000000 .L47
000076dc l       .text	00000000 .L46
000076e4 l       .text	00000000 .L49
00007764 l       .text	00000000 .L50
0000777a l       .text	00000000 .L51
00007796 l       .text	00000000 .L52
000077d6 l       .text	00000000 .L60
0000759e l       .text	00000000 .L59
000077bc l       .text	00000000 .L109
0000780a l       .text	00000000 .L63
000077f4 l       .text	00000000 .L64
000077fe l       .text	00000000 .L65
000075e2 l       .text	00000000 .L110
000004b7 l       .debug_abbrev	00000000 .Ldebug_abbrev0
00000000 l       .debug_ranges	00000000 .Ldebug_ranges0
0000070c l       .debug_line	00000000 .Ldebug_line0
00000000 l       .debug_macro	00000000 .Ldebug_macro0
0000740c l       .text	00000000 .LFB35
0000782a l       .text	00000000 .LFE35
0000740c l       .text	00000000 .LBI75
0000740c l       .text	00000000 .LBB75
00007412 l       .text	00000000 .LBE75
0000741a l       .text	00000000 .LBI77
0000741a l       .text	00000000 .LBB77
00007426 l       .text	00000000 .LBE77
00000002 l       .debug_loc	00000000 .LLST6
00000000 l       .debug_loc	00000000 .LVUS6
0000001a l       .debug_loc	00000000 .LLST7
00000018 l       .debug_loc	00000000 .LVUS7
00007426 l       .text	00000000 .LBI79
00007426 l       .text	00000000 .LBB79
00007436 l       .text	00000000 .LBE79
0000743a l       .text	00000000 .LBI81
0000743a l       .text	00000000 .LBB81
00007450 l       .text	00000000 .LBE81
0000743e l       .text	00000000 .LBI83
0000743e l       .text	00000000 .LBB83
00007440 l       .text	00000000 .LBE83
00007458 l       .text	00000000 .LBI85
00007458 l       .text	00000000 .LBB86
00007468 l       .text	00000000 .LBE86
00007468 l       .text	00000000 .LBI88
00007468 l       .text	00000000 .LBI90
00007468 l       .text	00000000 .LBB90
00007474 l       .text	00000000 .LBE90
00007476 l       .text	00000000 .LBI92
00007476 l       .text	00000000 .LBB92
00007484 l       .text	00000000 .LBE92
00000030 l       .debug_loc	00000000 .LLST8
0000002e l       .debug_loc	00000000 .LVUS8
00000048 l       .debug_loc	00000000 .LLST9
00000046 l       .debug_loc	00000000 .LVUS9
00007488 l       .text	00000000 .LBI96
00000060 l       .debug_loc	00000000 .LLST10
0000005c l       .debug_loc	00000000 .LVUS10
00000086 l       .debug_loc	00000000 .LLST11
0000007e l       .debug_loc	00000000 .LVUS11
000074a2 l       .text	00000000 .LBI98
000000c1 l       .debug_loc	00000000 .LLST12
000000bd l       .debug_loc	00000000 .LVUS12
000000e3 l       .debug_loc	00000000 .LLST13
000000df l       .debug_loc	00000000 .LVUS13
0000010f l       .debug_loc	00000000 .LLST14
0000010b l       .debug_loc	00000000 .LVUS14
0000013f l       .debug_loc	00000000 .LLST15
00000137 l       .debug_loc	00000000 .LVUS15
000001a9 l       .debug_loc	00000000 .LLST16
00000177 l       .debug_loc	00000000 .LVUS16
000074d0 l       .text	00000000 .LBI101
0000030d l       .debug_loc	00000000 .LLST17
00000305 l       .debug_loc	00000000 .LVUS17
0000035d l       .debug_loc	00000000 .LLST18
00000355 l       .debug_loc	00000000 .LVUS18
000003b1 l       .debug_loc	00000000 .LLST19
000003a5 l       .debug_loc	00000000 .LVUS19
000074e4 l       .text	00000000 .LVL32
00007606 l       .text	00000000 .LBI112
00000404 l       .debug_loc	00000000 .LLST20
00000402 l       .debug_loc	00000000 .LVUS20
00000428 l       .debug_loc	00000000 .LLST21
0000041c l       .debug_loc	00000000 .LVUS21
0000047a l       .debug_loc	00000000 .LLST22
00000476 l       .debug_loc	00000000 .LVUS22
000004ae l       .debug_loc	00000000 .LLST23
000004a2 l       .debug_loc	00000000 .LVUS23
000004fd l       .debug_loc	00000000 .LLST24
000004fb l       .debug_loc	00000000 .LVUS24
00000513 l       .debug_loc	00000000 .LLST25
00000511 l       .debug_loc	00000000 .LVUS25
00007636 l       .text	00000000 .LBI117
00000530 l       .debug_loc	00000000 .LLST26
0000052c l       .debug_loc	00000000 .LVUS26
0000056e l       .debug_loc	00000000 .LLST27
00000558 l       .debug_loc	00000000 .LVUS27
000005fb l       .debug_loc	00000000 .LLST28
000005f9 l       .debug_loc	00000000 .LVUS28
00000616 l       .debug_loc	00000000 .LLST29
00000610 l       .debug_loc	00000000 .LVUS29
00007660 l       .text	00000000 .LBB120
0000769c l       .text	00000000 .LBE120
00000642 l       .debug_loc	00000000 .LLST30
00000640 l       .debug_loc	00000000 .LVUS30
000076ca l       .text	00000000 .LBB133
000077aa l       .text	00000000 .LBE133
00000657 l       .debug_loc	00000000 .LLST31
00000655 l       .debug_loc	00000000 .LVUS31
000076ca l       .text	00000000 .LBI134
00000674 l       .debug_loc	00000000 .LLST32
00000670 l       .debug_loc	00000000 .LVUS32
0000069e l       .debug_loc	00000000 .LLST33
00000692 l       .debug_loc	00000000 .LVUS33
00000706 l       .debug_loc	00000000 .LLST34
00000700 l       .debug_loc	00000000 .LVUS34
00000734 l       .debug_loc	00000000 .LLST35
00000730 l       .debug_loc	00000000 .LVUS35
0000770c l       .text	00000000 .LVL107
00007556 l       .text	00000000 .LBI140
00000764 l       .debug_loc	00000000 .LLST36
0000075e l       .debug_loc	00000000 .LVUS36
0000078f l       .debug_loc	00000000 .LLST37
0000078d l       .debug_loc	00000000 .LVUS37
00007572 l       .text	00000000 .LBI142
000007aa l       .debug_loc	00000000 .LLST38
000007a2 l       .debug_loc	00000000 .LVUS38
000007f0 l       .debug_loc	00000000 .LLST39
000007ec l       .debug_loc	00000000 .LVUS39
0000757e l       .text	00000000 .LBI144
00000812 l       .debug_loc	00000000 .LLST40
0000080e l       .debug_loc	00000000 .LVUS40
00000840 l       .debug_loc	00000000 .LLST41
0000083a l       .debug_loc	00000000 .LVUS41
0000086f l       .debug_loc	00000000 .LLST42
00000869 l       .debug_loc	00000000 .LVUS42
0000089b l       .debug_loc	00000000 .LLST43
00000899 l       .debug_loc	00000000 .LVUS43
000008b4 l       .debug_loc	00000000 .LLST44
000008b2 l       .debug_loc	00000000 .LVUS44
000077bc l       .text	00000000 .LVL114
000008d5 l       .debug_loc	00000000 .LLST45
000008c7 l       .debug_loc	00000000 .LVUS45
00000984 l       .debug_loc	00000000 .LLST46
0000097c l       .debug_loc	00000000 .LVUS46
000077f4 l       .text	00000000 .LBB150
000077fa l       .text	00000000 .LBE150
000009cb l       .debug_loc	00000000 .LLST47
000009c9 l       .debug_loc	00000000 .LVUS47
000077f4 l       .text	00000000 .LBB151
000077f6 l       .text	00000000 .LBE151
000009e2 l       .debug_loc	00000000 .LLST48
000009de l       .debug_loc	00000000 .LVUS48
00000a09 l       .debug_loc	00000000 .LLST49
00000a07 l       .debug_loc	00000000 .LVUS49
000075aa l       .text	00000000 .LVL49
000075bc l       .text	00000000 .LBB161
000075c2 l       .text	00000000 .LBE161
00000a20 l       .debug_loc	00000000 .LLST50
00000a1c l       .debug_loc	00000000 .LVUS50
0000736e l       .text	00000000 .LFB29
0000740c l       .text	00000000 .LFE29
00000a52 l       .debug_loc	00000000 .LLST0
00000a42 l       .debug_loc	00000000 .LVUS0
00000ae6 l       .debug_loc	00000000 .LLST1
00000ad4 l       .debug_loc	00000000 .LVUS1
000073a6 l       .text	00000000 .LBB22
000073ac l       .text	00000000 .LBE22
000073c6 l       .text	00000000 .LBB24
000073d2 l       .text	00000000 .LBE24
00000b5b l       .debug_loc	00000000 .LLST2
00000b59 l       .debug_loc	00000000 .LVUS2
000073b0 l       .text	00000000 .LBB23
000073b6 l       .text	00000000 .LBE23
000073d8 l       .text	00000000 .LBB25
000073dc l       .text	00000000 .LBE25
00000b70 l       .debug_loc	00000000 .LLST3
00000b6e l       .debug_loc	00000000 .LVUS3
00000b8b l       .debug_loc	00000000 .LLST4
00000b87 l       .debug_loc	00000000 .LVUS4
00000bb6 l       .debug_loc	00000000 .LLST5
00000bb4 l       .debug_loc	00000000 .LVUS5
000073f4 l       .text	00000000 .LVL19
000073fe l       .text	00000000 .LVL20
000070d0 l       .text	00000000 .LFB27
000070e8 l       .text	00000000 .LFE27
0000741a l       .text	00000000 .LVL22
00007426 l       .text	00000000 .LVL23
00007476 l       .text	00000000 .LVL25
00007484 l       .text	00000000 .LVL26
0000748e l       .text	00000000 .LVL27
00007542 l       .text	00000000 .LVL40
000075f0 l       .text	00000000 .LVL58
000076d4 l       .text	00000000 .LVL100
000075ba l       .text	00000000 .LVL51
000075bc l       .text	00000000 .LVL52
000075c2 l       .text	00000000 .LVL55
000075c4 l       .text	00000000 .LVL56
000075ce l       .text	00000000 .LVL57
000074a2 l       .text	00000000 .LVL28
000076dc l       .text	00000000 .LVL102
000074e8 l       .text	00000000 .LVL33
000074ea l       .text	00000000 .LVL34
00007534 l       .text	00000000 .LVL37
00007538 l       .text	00000000 .LVL38
000075fe l       .text	00000000 .LVL59
000074c8 l       .text	00000000 .LVL29
000074e2 l       .text	00000000 .LVL31
000074fa l       .text	00000000 .LVL35
00007508 l       .text	00000000 .LVL36
0000753e l       .text	00000000 .LVL39
00007606 l       .text	00000000 .LVL60
0000761a l       .text	00000000 .LVL66
00007624 l       .text	00000000 .LVL67
0000762c l       .text	00000000 .LVL68
00007632 l       .text	00000000 .LVL70
00007640 l       .text	00000000 .LVL74
00007652 l       .text	00000000 .LVL78
0000765a l       .text	00000000 .LVL80
0000765c l       .text	00000000 .LVL81
00007668 l       .text	00000000 .LVL84
00007674 l       .text	00000000 .LVL85
0000767c l       .text	00000000 .LVL87
00007688 l       .text	00000000 .LVL88
00007690 l       .text	00000000 .LVL90
0000769c l       .text	00000000 .LVL91
000076ac l       .text	00000000 .LVL92
000076b6 l       .text	00000000 .LVL93
000076bc l       .text	00000000 .LVL95
000076be l       .text	00000000 .LVL96
000076c0 l       .text	00000000 .LVL97
000076c2 l       .text	00000000 .LVL98
000074d0 l       .text	00000000 .LVL30
00007614 l       .text	00000000 .LVL64
00007650 l       .text	00000000 .LVL77
00007618 l       .text	00000000 .LVL65
00007630 l       .text	00000000 .LVL69
00007608 l       .text	00000000 .LVL61
000076ba l       .text	00000000 .LVL94
0000760c l       .text	00000000 .LVL62
00007610 l       .text	00000000 .LVL63
00007636 l       .text	00000000 .LVL71
0000763c l       .text	00000000 .LVL73
0000764a l       .text	00000000 .LVL75
00007656 l       .text	00000000 .LVL79
00007664 l       .text	00000000 .LVL83
00007678 l       .text	00000000 .LVL86
0000768c l       .text	00000000 .LVL89
00007638 l       .text	00000000 .LVL72
0000764c l       .text	00000000 .LVL76
00007660 l       .text	00000000 .LVL82
000076e0 l       .text	00000000 .LVL103
000076e4 l       .text	00000000 .LVL104
000076ca l       .text	00000000 .LVL99
000076ea l       .text	00000000 .LVL105
000077aa l       .text	00000000 .LVL113
000076fc l       .text	00000000 .LVL106
00007710 l       .text	00000000 .LVL109
00007728 l       .text	00000000 .LVL111
00007748 l       .text	00000000 .LVL112
000076da l       .text	00000000 .LVL101
00007556 l       .text	00000000 .LVL41
0000755e l       .text	00000000 .LVL42
0000759e l       .text	00000000 .LVL47
000077dc l       .text	00000000 .LVL118
00007814 l       .text	00000000 .LVL129
000075a2 l       .text	00000000 .LVL48
000077f0 l       .text	00000000 .LVL120
000077f8 l       .text	00000000 .LVL123
000077fe l       .text	00000000 .LVL125
0000780a l       .text	00000000 .LVL126
0000780e l       .text	00000000 .LVL128
00007572 l       .text	00000000 .LVL43
0000757e l       .text	00000000 .LVL44
0000758a l       .text	00000000 .LVL45
00007590 l       .text	00000000 .LVL46
000077d6 l       .text	00000000 .LVL117
000077f4 l       .text	00000000 .LVL121
000077fa l       .text	00000000 .LVL124
0000780c l       .text	00000000 .LVL127
000077e4 l       .text	00000000 .LVL119
000077f6 l       .text	00000000 .LVL122
000075be l       .text	00000000 .LVL53
000075c0 l       .text	00000000 .LVL54
0000736e l       .text	00000000 .LVL0
00007384 l       .text	00000000 .LVL2
000073ba l       .text	00000000 .LVL7
000073be l       .text	00000000 .LVL8
00007400 l       .text	00000000 .LVL21
00007370 l       .text	00000000 .LVL1
00007394 l       .text	00000000 .LVL3
00007396 l       .text	00000000 .LVL4
000073a0 l       .text	00000000 .LVL5
000073a2 l       .text	00000000 .LVL6
000073d2 l       .text	00000000 .LVL9
000073d4 l       .text	00000000 .LVL10
000073e0 l       .text	00000000 .LVL13
000073e2 l       .text	00000000 .LVL14
000073d8 l       .text	00000000 .LVL11
000073dc l       .text	00000000 .LVL12
000073e6 l       .text	00000000 .LVL15
000073ea l       .text	00000000 .LVL16
000073ec l       .text	00000000 .LVL17
000073ee l       .text	00000000 .LVL18
0000050c l       .debug_info	00000000 .Ldebug_info0
0000736e l       .text	00000000 .Ltext0
0000740c l       .text	00000000 .Letext0
000073dc l       .text	00000000 .LBB26
000073e0 l       .text	00000000 .LBE26
000073e6 l       .text	00000000 .LBB27
000073ee l       .text	00000000 .LBE27
00007458 l       .text	00000000 .LBB85
00007458 l       .text	00000000 .LBE85
00007458 l       .text	00000000 .LBB87
00007468 l       .text	00000000 .LBE87
00007468 l       .text	00000000 .LBB88
00007474 l       .text	00000000 .LBE88
00007474 l       .text	00000000 .LBB95
00007488 l       .text	00000000 .LBE95
00007488 l       .text	00000000 .LBB96
000075ce l       .text	00000000 .LBE96
000075ce l       .text	00000000 .LBB168
000075ce l       .text	00000000 .LBE168
000075f0 l       .text	00000000 .LBB169
000076a8 l       .text	00000000 .LBE169
000076aa l       .text	00000000 .LBB170
00007814 l       .text	00000000 .LBE170
000074a2 l       .text	00000000 .LBB98
00007542 l       .text	00000000 .LBE98
000075f0 l       .text	00000000 .LBB162
000076a8 l       .text	00000000 .LBE162
000076aa l       .text	00000000 .LBB163
000077aa l       .text	00000000 .LBE163
000074ac l       .text	00000000 .LBB100
00007542 l       .text	00000000 .LBE100
000075f0 l       .text	00000000 .LBB131
000076a8 l       .text	00000000 .LBE131
000076aa l       .text	00000000 .LBB132
000076c2 l       .text	00000000 .LBE132
000074d0 l       .text	00000000 .LBB101
000074e8 l       .text	00000000 .LBE101
000074e8 l       .text	00000000 .LBB108
000074ea l       .text	00000000 .LBE108
000074fa l       .text	00000000 .LBB109
00007534 l       .text	00000000 .LBE109
000075f0 l       .text	00000000 .LBB110
000075fe l       .text	00000000 .LBE110
000075fe l       .text	00000000 .LBB111
00007606 l       .text	00000000 .LBE111
000076be l       .text	00000000 .LBB130
000076c2 l       .text	00000000 .LBE130
00007606 l       .text	00000000 .LBB112
000076a8 l       .text	00000000 .LBE112
000076aa l       .text	00000000 .LBB129
000076be l       .text	00000000 .LBE129
0000760c l       .text	00000000 .LBB114
00007614 l       .text	00000000 .LBE114
00007618 l       .text	00000000 .LBB124
0000761a l       .text	00000000 .LBE124
00007624 l       .text	00000000 .LBB125
0000762c l       .text	00000000 .LBE125
00007632 l       .text	00000000 .LBB126
000076a8 l       .text	00000000 .LBE126
000076aa l       .text	00000000 .LBB127
000076be l       .text	00000000 .LBE127
00007610 l       .text	00000000 .LBB115
00007614 l       .text	00000000 .LBE115
00007618 l       .text	00000000 .LBB116
0000761a l       .text	00000000 .LBE116
00007636 l       .text	00000000 .LBB117
00007650 l       .text	00000000 .LBE117
00007652 l       .text	00000000 .LBB123
0000769c l       .text	00000000 .LBE123
00007636 l       .text	00000000 .LBB119
0000764a l       .text	00000000 .LBE119
00007652 l       .text	00000000 .LBB121
0000769c l       .text	00000000 .LBE121
000076ca l       .text	00000000 .LBB134
000076e0 l       .text	00000000 .LBE134
000076ea l       .text	00000000 .LBB137
000077aa l       .text	00000000 .LBE137
00007556 l       .text	00000000 .LBB140
000075ba l       .text	00000000 .LBE140
000075ba l       .text	00000000 .LBB160
000075bc l       .text	00000000 .LBE160
000077aa l       .text	00000000 .LBB164
00007814 l       .text	00000000 .LBE164
00007572 l       .text	00000000 .LBB142
000075a2 l       .text	00000000 .LBE142
000075ba l       .text	00000000 .LBB156
000075bc l       .text	00000000 .LBE156
000077aa l       .text	00000000 .LBB157
00007814 l       .text	00000000 .LBE157
0000757e l       .text	00000000 .LBB144
000075a2 l       .text	00000000 .LBE144
000077aa l       .text	00000000 .LBB152
000077dc l       .text	00000000 .LBE152
000077bc l       .text	00000000 .LBB146
000077bc l       .text	00000000 .LBE146
000077d6 l       .text	00000000 .LBB147
000077dc l       .text	00000000 .LBE147
000075ba l       .text	00000000 .LBB149
000075bc l       .text	00000000 .LBE149
000077dc l       .text	00000000 .LBB153
00007814 l       .text	00000000 .LBE153
0000023a l       .debug_macro	00000000 .Ldebug_macro15
0000026d l       .debug_macro	00000000 .Ldebug_macro16
000002e4 l       .debug_macro	00000000 .Ldebug_macro20
0000033e l       .debug_macro	00000000 .Ldebug_macro21
0000043b l       .debug_macro	00000000 .Ldebug_macro22
0000046e l       .debug_macro	00000000 .Ldebug_macro23
0000057a l       .debug_macro	00000000 .Ldebug_macro24
000006da l       .debug_macro	00000000 .Ldebug_macro25
000006ea l       .debug_macro	00000000 .Ldebug_macro26
00000755 l       .debug_macro	00000000 .Ldebug_macro27
0000076b l       .debug_macro	00000000 .Ldebug_macro28
000007a0 l       .debug_macro	00000000 .Ldebug_macro31
00000a28 l       .debug_macro	00000000 .Ldebug_macro32
00000a4a l       .debug_macro	00000000 .Ldebug_macro33
00000000 l    df *ABS*	00000000 _copy_data.o
000070e8 l       .text	00000000 .Loc.0
000070ea l       .text	00000000 .Loc.1
000070ec l       .text	00000000 .Loc.2
000070ee l       .text	00000000 .Loc.3
000070f0 l       .text	00000000 .Loc.4
000070f2 l       .text	00000000 .Loc.5
000070f4 l       .text	00000000 .Loc.6
000070f6 l       .text	00000000 .Loc.7
000070f8 l       .text	00000000 .Loc.8
000070fa l       .text	00000000 .Loc.9
000070fc l       .text	00000000 .Loc.10
000070fe l       .text	00000000 L0
000070e8 l       .text	00000000 L0
000070fe l       .text	00000000 L0
000070f8 l       .text	00000000 .L__do_copy_data_start
000070f4 l       .text	00000000 .L__do_copy_data_loop
00000000 l    df *ABS*	00000000 _clear_bss.o
000070fe l       .text	00000000 .Loc.0
00007100 l       .text	00000000 .Loc.1
00007102 l       .text	00000000 .Loc.2
00007104 l       .text	00000000 .Loc.3
00007108 l       .text	00000000 .do_clear_bss_start
00007106 l       .text	00000000 .do_clear_bss_loop
00007106 l       .text	00000000 .Loc.4
00007108 l       .text	00000000 .Loc.5
0000710a l       .text	00000000 .Loc.6
0000710c l       .text	00000000 .Loc.7
0000710e l       .text	00000000 L0
000070fe l       .text	00000000 L0
0000710e l       .text	00000000 L0
00000000 l    df *ABS*	00000000 usbdrvasm.o
00007114 l       .text	00000000 .Loc.0
00007116 l       .text	00000000 .Loc.1
00007118 l       .text	00000000 .Loc.2
0000711a l       .text	00000000 .Loc.3
0000711c l       .text	00000000 .Loc.4
0000711e l       .text	00000000 .Loc.5
00007120 l       .text	00000000 .Loc.6
00007122 l       .text	00000000 .Loc.7
00007124 l       .text	00000000 .Loc.8
00007138 l       .text	00000000 usbCrcLoopEntry
00007126 l       .text	00000000 usbCrcByteLoop
00007126 l       .text	00000000 .Loc.9
00007128 l       .text	00000000 .Loc.10
0000712a l       .text	00000000 usbCrcBitLoop
0000712a l       .text	00000000 .Loc.11
0000712c l       .text	00000000 .Loc.12
0000712e l       .text	00000000 .Loc.13
00007134 l       .text	00000000 usbCrcNoXor
00007130 l       .text	00000000 .Loc.14
00007132 l       .text	00000000 .Loc.15
00007134 l       .text	00000000 .Loc.16
00007136 l       .text	00000000 .Loc.17
00007138 l       .text	00000000 .Loc.18
0000713a l       .text	00000000 .Loc.19
0000713c l       .text	00000000 usbCrcReady
0000713c l       .text	00000000 .Loc.20
0000713e l       .text	00000000 .Loc.21
00007140 l       .text	00000000 .Loc.22
00007142 l       .text	00000000 .Loc.23
00007144 l       .text	00000000 .Loc.24
00007146 l       .text	00000000 .Loc.25
00007148 l       .text	00000000 .Loc.26
0000714a l       .text	00000000 .Loc.27
0000714c l       .text	00000000 .Loc.28
0000714e l       .text	00000000 waitForJ
0000714e l       .text	00000000 .Loc.29
00007150 l       .text	00000000 .Loc.30
00007152 l       .text	00000000 .Loc.31
00007154 l       .text	00000000 waitForK
00007154 l       .text	00000000 .Loc.32
00007156 l       .text	00000000 .Loc.33
0000716e l       .text	00000000 foundK
00007158 l       .text	00000000 .Loc.34
0000715a l       .text	00000000 .Loc.35
0000715c l       .text	00000000 .Loc.36
0000715e l       .text	00000000 .Loc.37
00007160 l       .text	00000000 .Loc.38
00007162 l       .text	00000000 .Loc.39
00007164 l       .text	00000000 .Loc.40
00007166 l       .text	00000000 .Loc.41
00007168 l       .text	00000000 .Loc.42
0000716a l       .text	00000000 .Loc.43
0000716c l       .text	00000000 .Loc.44
00007280 l       .text	00000000 sofError
0000716e l       .text	00000000 .Loc.45
00007170 l       .text	00000000 .Loc.46
00007174 l       .text	00000000 .Loc.47
00007176 l       .text	00000000 .Loc.48
00007178 l       .text	00000000 .Loc.49
0000717a l       .text	00000000 .Loc.50
0000717c l       .text	00000000 .Loc.51
0000717e l       .text	00000000 .Loc.52
00007180 l       .text	00000000 .Loc.53
00007188 l       .text	00000000 haveTwoBitsK
00007182 l       .text	00000000 .Loc.54
00007184 l       .text	00000000 .Loc.55
00007186 l       .text	00000000 .Loc.56
00007188 l       .text	00000000 .Loc.57
0000718a l       .text	00000000 .Loc.58
0000718c l       .text	00000000 .Loc.59
0000718e l       .text	00000000 .Loc.60
00007190 l       .text	00000000 .Loc.61
00007192 l       .text	00000000 .Loc.62
00007194 l       .text	00000000 .Loc.63
00007196 l       .text	00000000 .Loc.64
00007198 l       .text	00000000 .Loc.65
0000719a l       .text	00000000 .Loc.66
0000719c l       .text	00000000 .Loc.67
0000719e l       .text	00000000 .Loc.68
000071a0 l       .text	00000000 .Loc.69
000071a2 l       .text	00000000 .Loc.70
00007216 l       .text	00000000 rxbit1
000071a4 l       .text	00000000 unstuff6
000071a4 l       .text	00000000 .Loc.71
000071a6 l       .text	00000000 .Loc.72
000071a8 l       .text	00000000 .Loc.73
000071aa l       .text	00000000 .Loc.74
000071ac l       .text	00000000 .Loc.75
000071ae l       .text	00000000 .Loc.76
000071ec l       .text	00000000 didUnstuff6
000071b0 l       .text	00000000 unstuff7
000071b0 l       .text	00000000 .Loc.77
000071b2 l       .text	00000000 .Loc.78
000071b4 l       .text	00000000 .Loc.79
000071b6 l       .text	00000000 .Loc.80
000071b8 l       .text	00000000 .Loc.81
000071ba l       .text	00000000 .Loc.82
000071fa l       .text	00000000 didUnstuff7
000071bc l       .text	00000000 unstuffEven
000071bc l       .text	00000000 .Loc.83
000071be l       .text	00000000 .Loc.84
000071c0 l       .text	00000000 .Loc.85
000071c2 l       .text	00000000 .Loc.86
000071c4 l       .text	00000000 .Loc.87
0000723a l       .text	00000000 se0
000071c6 l       .text	00000000 .Loc.88
000071c8 l       .text	00000000 .Loc.89
000071ca l       .text	00000000 L0
000071ca l       .text	00000000 .Loc.90
00007212 l       .text	00000000 didUnstuffE
000071cc l       .text	00000000 unstuffOdd
000071cc l       .text	00000000 .Loc.91
000071ce l       .text	00000000 .Loc.92
000071d0 l       .text	00000000 .Loc.93
000071d2 l       .text	00000000 .Loc.94
000071d4 l       .text	00000000 .Loc.95
000071d6 l       .text	00000000 .Loc.96
000071d8 l       .text	00000000 .Loc.97
000071da l       .text	00000000 L0
000071da l       .text	00000000 .Loc.98
00007226 l       .text	00000000 didUnstuffO
000071dc l       .text	00000000 rxByteLoop
000071dc l       .text	00000000 .Loc.99
000071de l       .text	00000000 .Loc.100
000071e0 l       .text	00000000 .Loc.101
000071e2 l       .text	00000000 .Loc.102
000071e8 l       .text	00000000 skipLeap
000071e4 l       .text	00000000 .Loc.103
000071e6 l       .text	00000000 .Loc.104
000071e8 l       .text	00000000 .Loc.105
000071ea l       .text	00000000 .Loc.106
000071ec l       .text	00000000 .Loc.107
000071ee l       .text	00000000 .Loc.108
000071f0 l       .text	00000000 .Loc.109
000071f2 l       .text	00000000 .Loc.110
000071f4 l       .text	00000000 .Loc.111
000071f6 l       .text	00000000 .Loc.112
000071f8 l       .text	00000000 .Loc.113
000071fa l       .text	00000000 .Loc.114
000071fc l       .text	00000000 .Loc.115
000071fe l       .text	00000000 .Loc.116
00007200 l       .text	00000000 .Loc.117
00007202 l       .text	00000000 rxBitLoop
00007202 l       .text	00000000 .Loc.118
00007204 l       .text	00000000 .Loc.119
00007206 l       .text	00000000 .Loc.120
00007208 l       .text	00000000 .Loc.121
0000720a l       .text	00000000 .Loc.122
0000720c l       .text	00000000 .Loc.123
0000720e l       .text	00000000 .Loc.124
00007210 l       .text	00000000 .Loc.125
00007212 l       .text	00000000 .Loc.126
00007214 l       .text	00000000 .Loc.127
00007216 l       .text	00000000 .Loc.128
00007218 l       .text	00000000 .Loc.129
0000721a l       .text	00000000 .Loc.130
0000721c l       .text	00000000 .Loc.131
0000721e l       .text	00000000 .Loc.132
00007220 l       .text	00000000 .Loc.133
00007222 l       .text	00000000 .Loc.134
00007224 l       .text	00000000 .Loc.135
00007226 l       .text	00000000 .Loc.136
00007228 l       .text	00000000 .Loc.137
0000722a l       .text	00000000 .Loc.138
0000722c l       .text	00000000 .Loc.139
0000722e l       .text	00000000 .Loc.140
00007230 l       .text	00000000 .Loc.141
00007232 l       .text	00000000 overflow
00007232 l       .text	00000000 .Loc.142
00007234 l       .text	00000000 .Loc.143
00007236 l       .text	00000000 ignorePacket
00007236 l       .text	00000000 .Loc.144
00007238 l       .text	00000000 .Loc.145
00007268 l       .text	00000000 storeTokenAndReturn
0000723a l       .text	00000000 .Loc.146
0000723c l       .text	00000000 .Loc.147
0000723e l       .text	00000000 .Loc.148
00007240 l       .text	00000000 .Loc.149
00007242 l       .text	00000000 .Loc.150
00007244 l       .text	00000000 .Loc.151
00007246 l       .text	00000000 .Loc.152
00007248 l       .text	00000000 .Loc.153
0000724a l       .text	00000000 .Loc.154
0000728a l       .text	00000000 handleData
0000724c l       .text	00000000 .Loc.155
0000724e l       .text	00000000 .Loc.156
00007250 l       .text	00000000 .Loc.157
00007254 l       .text	00000000 .Loc.158
00007256 l       .text	00000000 .Loc.159
00007258 l       .text	00000000 .Loc.160
0000725a l       .text	00000000 .Loc.161
0000725c l       .text	00000000 .Loc.162
0000725e l       .text	00000000 .Loc.163
000072b4 l       .text	00000000 handleIn
00007260 l       .text	00000000 .Loc.164
00007262 l       .text	00000000 .Loc.165
00007268 l       .text	00000000 handleSetupOrOut
00007264 l       .text	00000000 .Loc.166
00007266 l       .text	00000000 .Loc.167
00007268 l       .text	00000000 .Loc.168
0000726c l       .text	00000000 doReturn
0000726c l       .text	00000000 .Loc.169
0000727a l       .text	00000000 .Loc.170
0000727c l       .text	00000000 .Loc.171
0000727e l       .text	00000000 .Loc.172
00007280 l       .text	00000000 .Loc.173
00007288 l       .text	00000000 .Loc.174
0000728a l       .text	00000000 .Loc.175
0000728e l       .text	00000000 .Loc.176
00007290 l       .text	00000000 .Loc.177
00007292 l       .text	00000000 .Loc.178
00007296 l       .text	00000000 .Loc.179
00007298 l       .text	00000000 .Loc.180
000072e8 l       .text	00000000 sendNakAndReti
0000729a l       .text	00000000 .Loc.181
0000729c l       .text	00000000 .Loc.182
000072ec l       .text	00000000 sendAckAndReti
0000729e l       .text	00000000 .Loc.183
000072a2 l       .text	00000000 .Loc.184
000072a6 l       .text	00000000 .Loc.185
000072aa l       .text	00000000 .Loc.186
000072ac l       .text	00000000 .Loc.187
000072ae l       .text	00000000 .Loc.188
000072b2 l       .text	00000000 .Loc.189
000072b4 l       .text	00000000 .Loc.190
000072b8 l       .text	00000000 .Loc.191
000072ba l       .text	00000000 .Loc.192
000072bc l       .text	00000000 .Loc.193
000072be l       .text	00000000 .Loc.194
000072c2 l       .text	00000000 .Loc.195
000072c4 l       .text	00000000 .Loc.196
000072ee l       .text	00000000 sendCntAndReti
000072c6 l       .text	00000000 .Loc.197
000072ca l       .text	00000000 .Loc.198
000072cc l       .text	00000000 .Loc.199
000072ce l       .text	00000000 .Loc.200
000072f6 l       .text	00000000 usbSendAndReti
000072d0 l       .text	00000000 bitstuffN
000072d0 l       .text	00000000 .Loc.201
000072d2 l       .text	00000000 .Loc.202
000072d4 l       .text	00000000 .Loc.203
000072d6 l       .text	00000000 L0
000072d6 l       .text	00000000 .Loc.204
000072d8 l       .text	00000000 .Loc.205
000072da l       .text	00000000 .Loc.206
00007310 l       .text	00000000 didStuffN
000072dc l       .text	00000000 bitstuff6
000072dc l       .text	00000000 .Loc.207
000072de l       .text	00000000 .Loc.208
000072e0 l       .text	00000000 .Loc.209
000072e2 l       .text	00000000 .Loc.210
0000731e l       .text	00000000 didStuff6
000072e4 l       .text	00000000 bitstuff7
000072e4 l       .text	00000000 .Loc.211
000072e6 l       .text	00000000 .Loc.212
0000732a l       .text	00000000 didStuff7
000072e8 l       .text	00000000 .Loc.213
000072ea l       .text	00000000 .Loc.214
000072f0 l       .text	00000000 sendX3AndReti
000072ec l       .text	00000000 .Loc.215
000072ee l       .text	00000000 .Loc.216
000072f0 l       .text	00000000 .Loc.217
000072f2 l       .text	00000000 .Loc.218
000072f4 l       .text	00000000 .Loc.219
000072f6 l       .text	00000000 .Loc.220
000072f8 l       .text	00000000 .Loc.221
000072fa l       .text	00000000 .Loc.222
000072fc l       .text	00000000 .Loc.223
000072fe l       .text	00000000 .Loc.224
00007300 l       .text	00000000 .Loc.225
00007302 l       .text	00000000 .Loc.226
00007304 l       .text	00000000 txByteLoop
00007304 l       .text	00000000 .Loc.227
00007306 l       .text	00000000 txBitLoop
00007306 l       .text	00000000 .Loc.228
00007308 l       .text	00000000 .Loc.229
0000730a l       .text	00000000 .Loc.230
0000730c l       .text	00000000 .Loc.231
0000730e l       .text	00000000 .Loc.232
00007310 l       .text	00000000 .Loc.233
00007312 l       .text	00000000 .Loc.234
00007314 l       .text	00000000 .Loc.235
00007316 l       .text	00000000 .Loc.236
00007318 l       .text	00000000 .Loc.237
0000731a l       .text	00000000 .Loc.238
0000731c l       .text	00000000 .Loc.239
0000731e l       .text	00000000 .Loc.240
00007320 l       .text	00000000 .Loc.241
00007322 l       .text	00000000 .Loc.242
00007324 l       .text	00000000 .Loc.243
00007326 l       .text	00000000 .Loc.244
00007328 l       .text	00000000 .Loc.245
0000732a l       .text	00000000 .Loc.246
0000732c l       .text	00000000 .Loc.247
0000732e l       .text	00000000 .Loc.248
00007330 l       .text	00000000 .Loc.249
00007332 l       .text	00000000 .Loc.250
00007334 l       .text	00000000 .Loc.251
00007336 l       .text	00000000 .Loc.252
00007338 l       .text	00000000 .Loc.253
0000733a l       .text	00000000 .Loc.254
0000733c l       .text	00000000 .Loc.255
0000733e l       .text	00000000 .Loc.256
00007340 l       .text	00000000 .Loc.257
00007344 l       .text	00000000 .Loc.258
00007346 l       .text	00000000 .Loc.259
00007348 l       .text	00000000 .Loc.260
0000734a l       .text	00000000 .Loc.261
0000734c l       .text	00000000 .Loc.262
00007352 l       .text	00000000 skipAddrAssign
0000734e l       .text	00000000 .Loc.263
00007352 l       .text	00000000 .Loc.264
00007354 l       .text	00000000 .Loc.265
00007356 l       .text	00000000 .Loc.266
00007358 l       .text	00000000 .Loc.267
0000735a l       .text	00000000 .Loc.268
0000735c l       .text	00000000 .Loc.269
0000735e l       .text	00000000 .Loc.270
00007360 l       .text	00000000 .Loc.271
00007362 l       .text	00000000 se0Delay
00007362 l       .text	00000000 .Loc.272
00007364 l       .text	00000000 .Loc.273
00007366 l       .text	00000000 .Loc.274
00007368 l       .text	00000000 .Loc.275
0000736a l       .text	00000000 .Loc.276
0000736c l       .text	00000000 .Loc.277
0000736e l       .text	00000000 L0
00007114 l       .text	00000000 L0
0000736e l       .text	00000000 L0
00000000 l    df *ABS*	00000000 eerd_byte.o
0000782a l       .text	00000000 .L11
00000000 l    df *ABS*	00000000 eewr_byte.o
0000783c l       .text	00000000 .L11
00000000 l    df *ABS*	00000000 _exit.o
00007854 l       .text	00000000 .Loc.0
00007856 l       .text	00000000 __stop_program
00007856 l       .text	00000000 .Loc.1
00007858 l       .text	00000000 L0
00007854 l       .text	00000000 L0
00007858 l       .text	00000000 L0
00007084 g     O .text	00000012 usbDescriptorDevice
0000783c g       .text	00000000 eeprom_write_r18
00007146 g     F .text	00000000 __vector_1
00800071 g     O .bss	0000000b usbTxBuf
00000000 g       *ABS*	00000000 nullVector
0000ffa0 g       *ABS*	00000000 __DATA_REGION_LENGTH__
00007072 g       .text	00000000 __trampolines_start
00007858 g       .text	00000000 _etext
000070c0 g     O .text	00000004 usbDescriptorString0
00007112  w      .text	00000000 __vector_12
00007112 g       .text	00000000 __bad_interrupt
0000785e g       *ABS*	00000000 __data_load_end
00007112  w      .text	00000000 __vector_6
00007114 g       .text	00000000 usbCrc16
00007072 g       .text	00000000 __trampolines_end
00007112  w      .text	00000000 __vector_3
000070d0 g     F .text	00000018 __BOOTLOADERENTRY_FROMSOFTWARE__bootup_investigate_RAMEND
00007858 g       *ABS*	00000000 __data_load_start
000070c4 g       .text	00000000 __dtors_end
0080009b g       .bss	00000000 __bss_end
00000400 g       *ABS*	00000000 __LOCK_REGION_LENGTH__
00007054 g     O .text	0000001e bootloader__do_spm
0000783a g     F .text	0000001a eeprom_write_byte
00007112  w      .text	00000000 __vector_11
000070c4  w      .text	00000000 __init
00007112  w      .text	00000000 __vector_13
0000713e g       .text	00000000 usbCrc16Append
00007112  w      .text	00000000 __vector_17
00007112  w      .text	00000000 __vector_19
00007112  w      .text	00000000 __vector_7
00007072 g     O .text	00000012 usbDescriptorConfiguration
000070fe g       .text	00000010 .hidden __do_clear_bss
0080007c g     O .bss	00000001 usbDeviceAddr
00810000 g       .comment	00000000 __eeprom_end
0080007d g     O .bss	00000001 usbRxToken
00007000 g       .text	00000000 __vectors
0000782a g     F .text	00000010 eeprom_read_byte
00800066 g       .data	00000000 __data_end
000070a4 g     O .text	0000001c usbDescriptorStringVendor
0080007e g     O .bss	00000001 usbInputBufOffset
00007000  w      .text	00000000 __vector_default
00007112  w      .text	00000000 __vector_5
00000400 g       *ABS*	00000000 __SIGNATURE_REGION_LENGTH__
000070c4 g       .text	00000000 __ctors_start
000070e8 g       .text	00000016 .hidden __do_copy_data
0000736e g     F .text	0000009e usbFunctionSetup_USBASP_FUNC_TRANSMIT
00800066 g       .bss	00000000 __bss_start
0000740c g     F .text	0000041e main
00007112  w      .text	00000000 __vector_4
00800061 g     O .data	00000001 usbTxLen
00000000  w      *ABS*	00000000 __heap_end
00007112  w      .text	00000000 __vector_9
00007112  w      .text	00000000 __vector_2
00000400 g       *ABS*	00000000 __USER_SIGNATURE_REGION_LENGTH__
0080007f g     O .bss	00000002 usbMsgPtr
00007112  w      .text	00000000 __vector_15
00800081 g     O .bss	00000001 usbRxLen
000070c4 g       .text	00000000 __dtors_start
000070c4 g       .text	00000000 __ctors_end
0000085f  w      *ABS*	00000000 __stack
00800082 g     O .bss	00000001 usbNewDeviceAddr
00800066 g       .data	00000000 _edata
0080009d g       .noinit	00000000 _end
00007112  w      .text	00000000 __vector_8
00007854  w      .text	00000000 .hidden exit
00800083 g     O .bss	00000001 usbCurrentTok
00007096 g     O .text	0000000e usbDescriptorStringDevice
00010000 g       *ABS*	00000000 __EEPROM_REGION_LENGTH__
00007854 g       .text	00000000 .hidden _exit
00800084 g     O .bss	00000001 usbConfiguration
00007112  w      .text	00000000 __vector_14
00007112  w      .text	00000000 __vector_10
00800085 g     O .bss	00000016 usbRxBuf
00007112  w      .text	00000000 __vector_16
00800060 g       .data	00000000 __data_start
00007112  w      .text	00000000 __vector_18
00000002 g       *ABS*	00000000 __FUSE_REGION_LENGTH__
00020000 g       *ABS*	00000000 __TEXT_REGION_LENGTH__
00007112  w      .text	00000000 __vector_20



Disassembly of section .text:

00007000 <__vectors>:
    7000:	61 c0       	rjmp	.+194    	; 0x70c4 <__ctors_end>
    7002:	00 00       	nop
    7004:	a0 c0       	rjmp	.+320    	; 0x7146 <__vector_1>
    7006:	00 00       	nop
    7008:	84 c0       	rjmp	.+264    	; 0x7112 <__bad_interrupt>
    700a:	00 00       	nop
    700c:	82 c0       	rjmp	.+260    	; 0x7112 <__bad_interrupt>
    700e:	00 00       	nop
    7010:	80 c0       	rjmp	.+256    	; 0x7112 <__bad_interrupt>
    7012:	00 00       	nop
    7014:	7e c0       	rjmp	.+252    	; 0x7112 <__bad_interrupt>
    7016:	00 00       	nop
    7018:	7c c0       	rjmp	.+248    	; 0x7112 <__bad_interrupt>
    701a:	00 00       	nop
    701c:	7a c0       	rjmp	.+244    	; 0x7112 <__bad_interrupt>
    701e:	00 00       	nop
    7020:	78 c0       	rjmp	.+240    	; 0x7112 <__bad_interrupt>
    7022:	00 00       	nop
    7024:	76 c0       	rjmp	.+236    	; 0x7112 <__bad_interrupt>
    7026:	00 00       	nop
    7028:	74 c0       	rjmp	.+232    	; 0x7112 <__bad_interrupt>
    702a:	00 00       	nop
    702c:	72 c0       	rjmp	.+228    	; 0x7112 <__bad_interrupt>
    702e:	00 00       	nop
    7030:	70 c0       	rjmp	.+224    	; 0x7112 <__bad_interrupt>
    7032:	00 00       	nop
    7034:	6e c0       	rjmp	.+220    	; 0x7112 <__bad_interrupt>
    7036:	00 00       	nop
    7038:	6c c0       	rjmp	.+216    	; 0x7112 <__bad_interrupt>
    703a:	00 00       	nop
    703c:	6a c0       	rjmp	.+212    	; 0x7112 <__bad_interrupt>
    703e:	00 00       	nop
    7040:	68 c0       	rjmp	.+208    	; 0x7112 <__bad_interrupt>
    7042:	00 00       	nop
    7044:	66 c0       	rjmp	.+204    	; 0x7112 <__bad_interrupt>
    7046:	00 00       	nop
    7048:	64 c0       	rjmp	.+200    	; 0x7112 <__bad_interrupt>
    704a:	00 00       	nop
    704c:	62 c0       	rjmp	.+196    	; 0x7112 <__bad_interrupt>
    704e:	00 00       	nop
    7050:	60 c0       	rjmp	.+192    	; 0x7112 <__bad_interrupt>
	...

00007054 <bootloader__do_spm>:
    7054:	ec 2d fd 2d b7 b6 b0 fc fd cf 27 bf e8 95 b7 b6     .-.-......'.....
    7064:	b0 fc fd cf 21 e1 b7 b6 b6 fc f4 cf 08 95           ....!.........

00007072 <usbDescriptorConfiguration>:
    7072:	09 02 12 00 01 01 00 80 32 09 04 00 00 00 00 00     ........2.......
	...

00007084 <usbDescriptorDevice>:
    7084:	12 01 10 01 ff 00 00 08 c0 16 dc 05 02 01 01 02     ................
    7094:	00 01                                               ..

00007096 <usbDescriptorStringDevice>:
    7096:	0e 03 55 00 53 00 42 00 61 00 73 00 70 00           ..U.S.B.a.s.p.

000070a4 <usbDescriptorStringVendor>:
    70a4:	1c 03 77 00 77 00 77 00 2e 00 66 00 69 00 73 00     ..w.w.w...f.i.s.
    70b4:	63 00 68 00 6c 00 2e 00 64 00 65 00                 c.h.l...d.e.

000070c0 <usbDescriptorString0>:
    70c0:	04 03 09 04                                         ....

000070c4 <__ctors_end>:
    70c4:	11 24       	eor	r1, r1
    70c6:	1f be       	out	0x3f, r1	; 63
    70c8:	cf e5       	ldi	r28, 0x5F	; 95
    70ca:	d8 e0       	ldi	r29, 0x08	; 8
    70cc:	de bf       	out	0x3e, r29	; 62
    70ce:	cd bf       	out	0x3d, r28	; 61

000070d0 <__BOOTLOADERENTRY_FROMSOFTWARE__bootup_investigate_RAMEND>:
/* ------------------------------------------------------------------------ */

#if (HAVE_BOOTLOADERENTRY_FROMSOFTWARE)
void __attribute__ ((section(".init3"),naked,used,no_instrument_function)) __BOOTLOADERENTRY_FROMSOFTWARE__bootup_investigate_RAMEND(void);
void __BOOTLOADERENTRY_FROMSOFTWARE__bootup_investigate_RAMEND(void) {
  asm volatile (
    70d0:	24 b7       	in	r18, 0x34	; 52
    70d2:	d8 e0       	ldi	r29, 0x08	; 8
    70d4:	ce e5       	ldi	r28, 0x5E	; 94
    70d6:	39 91       	ld	r19, Y+
    70d8:	38 33       	cpi	r19, 0x38	; 56
    70da:	39 91       	ld	r19, Y+
    70dc:	09 f0       	breq	.+2      	; 0x70e0 <__BOOTLOADERENTRY_FROMSOFTWARE__bootup_investigate_RAMEND_done6>

000070de <__BOOTLOADERENTRY_FROMSOFTWARE__bootup_investigate_RAMEND_mismatch6>:
    70de:	3f ef       	ldi	r19, 0xFF	; 255

000070e0 <__BOOTLOADERENTRY_FROMSOFTWARE__bootup_investigate_RAMEND_done6>:
    70e0:	30 93 9c 00 	sts	0x009C, r19	; 0x80009c <__BOOTLOADERENTRY_FROMSOFTWARE__bootup_RAMEND_doesmatch>
    70e4:	20 93 9b 00 	sts	0x009B, r18	; 0x80009b <__BOOTLOADERENTRY_FROMSOFTWARE__bootup_MCUCSR>

000070e8 <__do_copy_data>:
    70e8:	10 e0       	ldi	r17, 0x00	; 0

000070ea <.Loc.1>:
    70ea:	a0 e6       	ldi	r26, 0x60	; 96

000070ec <.Loc.2>:
    70ec:	b0 e0       	ldi	r27, 0x00	; 0

000070ee <.Loc.3>:
    70ee:	e8 e5       	ldi	r30, 0x58	; 88

000070f0 <.Loc.4>:
    70f0:	f8 e7       	ldi	r31, 0x78	; 120

000070f2 <.Loc.5>:
    70f2:	02 c0       	rjmp	.+4      	; 0x70f8 <.L__do_copy_data_start>

000070f4 <.L__do_copy_data_loop>:
    70f4:	05 90       	lpm	r0, Z+

000070f6 <.Loc.7>:
    70f6:	0d 92       	st	X+, r0

000070f8 <.L__do_copy_data_start>:
    70f8:	a6 36       	cpi	r26, 0x66	; 102

000070fa <.Loc.9>:
    70fa:	b1 07       	cpc	r27, r17

000070fc <.Loc.10>:
    70fc:	d9 f7       	brne	.-10     	; 0x70f4 <.L__do_copy_data_loop>

000070fe <__do_clear_bss>:
    70fe:	20 e0       	ldi	r18, 0x00	; 0

00007100 <.Loc.1>:
    7100:	a6 e6       	ldi	r26, 0x66	; 102

00007102 <.Loc.2>:
    7102:	b0 e0       	ldi	r27, 0x00	; 0

00007104 <.Loc.3>:
    7104:	01 c0       	rjmp	.+2      	; 0x7108 <.Loc.5>

00007106 <.Loc.4>:
    7106:	1d 92       	st	X+, r1

00007108 <.Loc.5>:
    7108:	ab 39       	cpi	r26, 0x9B	; 155

0000710a <.Loc.6>:
    710a:	b2 07       	cpc	r27, r18

0000710c <.Loc.7>:
    710c:	e1 f7       	brne	.-8      	; 0x7106 <.Loc.4>

0000710e <L0^A>:
    710e:	7e d1       	rcall	.+764    	; 0x740c <main>
    7110:	a1 c3       	rjmp	.+1858   	; 0x7854 <_exit>

00007112 <__bad_interrupt>:
    7112:	76 cf       	rjmp	.-276    	; 0x7000 <__vectors>

00007114 <usbCrc16>:
;   poly    r20+r21
;   scratch r23
;   resCrc  r24+r25 / r16+r17
;   ptr     X / Z
usbCrc16:
    mov     ptrL, argPtrL
    7114:	a8 2f       	mov	r26, r24

00007116 <.Loc.1>:
    mov     ptrH, argPtrH
    7116:	b9 2f       	mov	r27, r25

00007118 <.Loc.2>:
    ldi     resCrcL, 0
    7118:	80 e0       	ldi	r24, 0x00	; 0

0000711a <.Loc.3>:
    ldi     resCrcH, 0
    711a:	90 e0       	ldi	r25, 0x00	; 0

0000711c <.Loc.4>:
    ldi     polyL, lo8(0xa001)
    711c:	41 e0       	ldi	r20, 0x01	; 1

0000711e <.Loc.5>:
    ldi     polyH, hi8(0xa001)
    711e:	50 ea       	ldi	r21, 0xA0	; 160

00007120 <.Loc.6>:
    com     argLen      ; argLen = -argLen - 1: modified loop to ensure that carry is set
    7120:	60 95       	com	r22

00007122 <.Loc.7>:
    ldi     bitCnt, 0   ; loop counter with starnd condition = end condition
    7122:	30 e0       	ldi	r19, 0x00	; 0

00007124 <.Loc.8>:
    rjmp    usbCrcLoopEntry
    7124:	09 c0       	rjmp	.+18     	; 0x7138 <usbCrcLoopEntry>

00007126 <usbCrcByteLoop>:
usbCrcByteLoop:
    ld      byte, ptr+
    7126:	2d 91       	ld	r18, X+

00007128 <.Loc.10>:
    eor     resCrcL, byte
    7128:	82 27       	eor	r24, r18

0000712a <usbCrcBitLoop>:
usbCrcBitLoop:
    ror     resCrcH     ; carry is always set here (see brcs jumps to here)
    712a:	97 95       	ror	r25

0000712c <.Loc.12>:
    ror     resCrcL
    712c:	87 95       	ror	r24

0000712e <.Loc.13>:
    brcs    usbCrcNoXor
    712e:	10 f0       	brcs	.+4      	; 0x7134 <usbCrcNoXor>

00007130 <.Loc.14>:
    eor     resCrcL, polyL
    7130:	84 27       	eor	r24, r20

00007132 <.Loc.15>:
    eor     resCrcH, polyH
    7132:	95 27       	eor	r25, r21

00007134 <usbCrcNoXor>:
usbCrcNoXor:
    subi    bitCnt, 224 ; (8 * 224) % 256 = 0; this loop iterates 8 times
    7134:	30 5e       	subi	r19, 0xE0	; 224

00007136 <.Loc.17>:
    brcs    usbCrcBitLoop
    7136:	c8 f3       	brcs	.-14     	; 0x712a <usbCrcBitLoop>

00007138 <usbCrcLoopEntry>:
usbCrcLoopEntry:
    subi    argLen, -1
    7138:	6f 5f       	subi	r22, 0xFF	; 255

0000713a <.Loc.19>:
    brcs    usbCrcByteLoop
    713a:	a8 f3       	brcs	.-22     	; 0x7126 <usbCrcByteLoop>

0000713c <usbCrcReady>:
usbCrcReady:
    ret
    713c:	08 95       	ret

0000713e <usbCrc16Append>:

#endif /* USB_USE_FAST_CRC */

; extern unsigned usbCrc16Append(unsigned char *data, unsigned char len);
usbCrc16Append:
    rcall   usbCrc16
    713e:	ea df       	rcall	.-44     	; 0x7114 <usbCrc16>

00007140 <.Loc.22>:
    st      ptr+, resCrcL
    7140:	8d 93       	st	X+, r24

00007142 <.Loc.23>:
    st      ptr+, resCrcH
    7142:	9d 93       	st	X+, r25

00007144 <.Loc.24>:
    ret
    7144:	08 95       	ret

00007146 <__vector_1>:
; Numbers in brackets are clocks counted from center of last sync bit
; when instruction starts

USB_INTR_VECTOR:
;order of registers pushed: YL, SREG YH, [sofError], bitcnt, shift, x1, x2, x3, x4, cnt
    push    YL                  ;[-25] push only what is necessary to sync with edge ASAP
    7146:	cf 93       	push	r28

00007148 <.Loc.26>:
    in      YL, SREG            ;[-23]
    7148:	cf b7       	in	r28, 0x3f	; 63

0000714a <.Loc.27>:
    push    YL                  ;[-22]
    714a:	cf 93       	push	r28

0000714c <.Loc.28>:
    push    YH                  ;[-20]
    714c:	df 93       	push	r29

0000714e <waitForJ>:
;sync up with J to K edge during sync pattern -- use fastest possible loops
;The first part waits at most 1 bit long since we must be in sync pattern.
;YL is guarenteed to be < 0x80 because I flag is clear. When we jump to
;waitForJ, ensure that this prerequisite is met.
waitForJ:
    inc     YL
    714e:	c3 95       	inc	r28

00007150 <.Loc.30>:
    sbis    USBIN, USBMINUS
    7150:	83 9b       	sbis	0x10, 3	; 16

00007152 <.Loc.31>:
    brne    waitForJ        ; just make sure we have ANY timeout
    7152:	e9 f7       	brne	.-6      	; 0x714e <waitForJ>

00007154 <waitForK>:
waitForK:
;The following code results in a sampling window of < 1/4 bit which meets the spec.
    sbis    USBIN, USBMINUS     ;[-15]
    7154:	83 9b       	sbis	0x10, 3	; 16

00007156 <.Loc.33>:
    rjmp    foundK              ;[-14]
    7156:	0b c0       	rjmp	.+22     	; 0x716e <foundK>

00007158 <.Loc.34>:
    sbis    USBIN, USBMINUS
    7158:	83 9b       	sbis	0x10, 3	; 16

0000715a <.Loc.35>:
    rjmp    foundK
    715a:	09 c0       	rjmp	.+18     	; 0x716e <foundK>

0000715c <.Loc.36>:
    sbis    USBIN, USBMINUS
    715c:	83 9b       	sbis	0x10, 3	; 16

0000715e <.Loc.37>:
    rjmp    foundK
    715e:	07 c0       	rjmp	.+14     	; 0x716e <foundK>

00007160 <.Loc.38>:
    sbis    USBIN, USBMINUS
    7160:	83 9b       	sbis	0x10, 3	; 16

00007162 <.Loc.39>:
    rjmp    foundK
    7162:	05 c0       	rjmp	.+10     	; 0x716e <foundK>

00007164 <.Loc.40>:
    sbis    USBIN, USBMINUS
    7164:	83 9b       	sbis	0x10, 3	; 16

00007166 <.Loc.41>:
    rjmp    foundK
    7166:	03 c0       	rjmp	.+6      	; 0x716e <foundK>

00007168 <.Loc.42>:
    sbis    USBIN, USBMINUS
    7168:	83 9b       	sbis	0x10, 3	; 16

0000716a <.Loc.43>:
    rjmp    foundK
    716a:	01 c0       	rjmp	.+2      	; 0x716e <foundK>

0000716c <.Loc.44>:
    sts     usbSofCount, YL
#endif  /* USB_COUNT_SOF */
#ifdef USB_SOF_HOOK
    USB_SOF_HOOK
#endif
    rjmp    sofError
    716c:	89 c0       	rjmp	.+274    	; 0x7280 <sofError>

0000716e <foundK>:
foundK:                         ;[-12]
;{3, 5} after falling D- edge, average delay: 4 cycles [we want 5 for center sampling]
;we have 1 bit time for setup purposes, then sample again. Numbers in brackets
;are cycles from center of first sync (double K) bit after the instruction
    push    bitcnt              ;[-12]
    716e:	6f 93       	push	r22

00007170 <.Loc.46>:
;   [---]                       ;[-11]
    lds     YL, usbInputBufOffset;[-10]
    7170:	c0 91 7e 00 	lds	r28, 0x007E	; 0x80007e <usbInputBufOffset>

00007174 <.Loc.47>:
;   [---]                       ;[-9]
    clr     YH                  ;[-8]
    7174:	dd 27       	eor	r29, r29

00007176 <.Loc.48>:
    subi    YL, lo8(-(usbRxBuf));[-7] [rx loop init]
    7176:	cb 57       	subi	r28, 0x7B	; 123

00007178 <.Loc.49>:
    sbci    YH, hi8(-(usbRxBuf));[-6] [rx loop init]
    7178:	df 4f       	sbci	r29, 0xFF	; 255

0000717a <.Loc.50>:
    push    shift               ;[-5]
    717a:	2f 93       	push	r18

0000717c <.Loc.51>:
;   [---]                       ;[-4]
    ldi     bitcnt, 0x55        ;[-3] [rx loop init]
    717c:	65 e5       	ldi	r22, 0x55	; 85

0000717e <.Loc.52>:
    sbis    USBIN, USBMINUS     ;[-2] we want two bits K (sample 2 cycles too early)
    717e:	83 9b       	sbis	0x10, 3	; 16

00007180 <.Loc.53>:
    rjmp    haveTwoBitsK        ;[-1]
    7180:	03 c0       	rjmp	.+6      	; 0x7188 <haveTwoBitsK>

00007182 <.Loc.54>:
    pop     shift               ;[0] undo the push from before
    7182:	2f 91       	pop	r18

00007184 <.Loc.55>:
    pop     bitcnt              ;[2] undo the push from before
    7184:	6f 91       	pop	r22

00007186 <.Loc.56>:
    rjmp    waitForK            ;[4] this was not the end of sync, retry
    7186:	e6 cf       	rjmp	.-52     	; 0x7154 <waitForK>

00007188 <haveTwoBitsK>:

;----------------------------------------------------------------------------
; push more registers and initialize values while we sample the first bits:
;----------------------------------------------------------------------------
haveTwoBitsK:
    push    x1              ;[1]
    7188:	0f 93       	push	r16

0000718a <.Loc.58>:
    push    x2              ;[3]
    718a:	1f 93       	push	r17

0000718c <.Loc.59>:
    push    x3              ;[5]
    718c:	4f 93       	push	r20

0000718e <.Loc.60>:
    ldi     shift, 0        ;[7]
    718e:	20 e0       	ldi	r18, 0x00	; 0

00007190 <.Loc.61>:
    ldi     x3, 1<<4        ;[8] [rx loop init] first sample is inverse bit, compensate that
    7190:	40 e1       	ldi	r20, 0x10	; 16

00007192 <.Loc.62>:
    push    x4              ;[9] == leap
    7192:	5f 93       	push	r21

00007194 <.Loc.63>:

    in      x1, USBIN       ;[11] <-- sample bit 0
    7194:	00 b3       	in	r16, 0x10	; 16

00007196 <.Loc.64>:
    andi    x1, USBMASK     ;[12]
    7196:	0c 70       	andi	r16, 0x0C	; 12

00007198 <.Loc.65>:
    bst     x1, USBMINUS    ;[13]
    7198:	03 fb       	bst	r16, 3

0000719a <.Loc.66>:
    bld     shift, 7        ;[14]
    719a:	27 f9       	bld	r18, 7

0000719c <.Loc.67>:
    push    cnt             ;[15]
    719c:	3f 93       	push	r19

0000719e <.Loc.68>:
    ldi     leap, 0         ;[17] [rx loop init]
    719e:	50 e0       	ldi	r21, 0x00	; 0

000071a0 <.Loc.69>:
    ldi     cnt, USB_BUFSIZE;[18] [rx loop init]
    71a0:	3b e0       	ldi	r19, 0x0B	; 11

000071a2 <.Loc.70>:
    rjmp    rxbit1          ;[19] arrives at [21]
    71a2:	39 c0       	rjmp	.+114    	; 0x7216 <rxbit1>

000071a4 <unstuff6>:

; duration of unstuffing code should be 10.66666667 cycles. We adjust "leap"
; accordingly to approximate this value in the long run.

unstuff6:
    andi    x2, USBMASK ;[03]
    71a4:	1c 70       	andi	r17, 0x0C	; 12

000071a6 <.Loc.72>:
    ori     x3, 1<<6    ;[04] will not be shifted any more
    71a6:	40 64       	ori	r20, 0x40	; 64

000071a8 <.Loc.73>:
    andi    shift, ~0x80;[05]
    71a8:	2f 77       	andi	r18, 0x7F	; 127

000071aa <.Loc.74>:
    mov     x1, x2      ;[06] sampled bit 7 is actually re-sampled bit 6
    71aa:	01 2f       	mov	r16, r17

000071ac <.Loc.75>:
    subi    leap, -1    ;[07] total duration = 11 bits -> subtract 1/3
    71ac:	5f 5f       	subi	r21, 0xFF	; 255

000071ae <.Loc.76>:
    rjmp    didUnstuff6 ;[08]
    71ae:	1e c0       	rjmp	.+60     	; 0x71ec <didUnstuff6>

000071b0 <unstuff7>:

unstuff7:
    ori     x3, 1<<7    ;[09] will not be shifted any more
    71b0:	40 68       	ori	r20, 0x80	; 128

000071b2 <.Loc.78>:
    in      x2, USBIN   ;[00] [10]  re-sample bit 7
    71b2:	10 b3       	in	r17, 0x10	; 16

000071b4 <.Loc.79>:
    andi    x2, USBMASK ;[01]
    71b4:	1c 70       	andi	r17, 0x0C	; 12

000071b6 <.Loc.80>:
    andi    shift, ~0x80;[02]
    71b6:	2f 77       	andi	r18, 0x7F	; 127

000071b8 <.Loc.81>:
    subi    leap, 2     ;[03] total duration = 10 bits -> add 1/3
    71b8:	52 50       	subi	r21, 0x02	; 2

000071ba <.Loc.82>:
    rjmp    didUnstuff7 ;[04]
    71ba:	1f c0       	rjmp	.+62     	; 0x71fa <didUnstuff7>

000071bc <unstuffEven>:

unstuffEven:
    ori     x3, 1<<6    ;[09] will be shifted right 6 times for bit 0
    71bc:	40 64       	ori	r20, 0x40	; 64

000071be <.Loc.84>:
    in      x1, USBIN   ;[00] [10]
    71be:	00 b3       	in	r16, 0x10	; 16

000071c0 <.Loc.85>:
    andi    shift, ~0x80;[01]
    71c0:	2f 77       	andi	r18, 0x7F	; 127

000071c2 <.Loc.86>:
    andi    x1, USBMASK ;[02]
    71c2:	0c 70       	andi	r16, 0x0C	; 12

000071c4 <.Loc.87>:
    breq    se0         ;[03]
    71c4:	d1 f1       	breq	.+116    	; 0x723a <se0>

000071c6 <.Loc.88>:
    subi    leap, -1    ;[04] total duration = 11 bits -> subtract 1/3
    71c6:	5f 5f       	subi	r21, 0xFF	; 255

000071c8 <.Loc.89>:
    nop2                ;[05]
    71c8:	00 c0       	rjmp	.+0      	; 0x71ca <L0^A>

000071ca <L0^A>:
    rjmp    didUnstuffE ;[06]
    71ca:	23 c0       	rjmp	.+70     	; 0x7212 <didUnstuffE>

000071cc <unstuffOdd>:

unstuffOdd:
    ori     x3, 1<<5    ;[09] will be shifted right 4 times for bit 1
    71cc:	40 62       	ori	r20, 0x20	; 32

000071ce <.Loc.92>:
    in      x2, USBIN   ;[00] [10]
    71ce:	10 b3       	in	r17, 0x10	; 16

000071d0 <.Loc.93>:
    andi    shift, ~0x80;[01]
    71d0:	2f 77       	andi	r18, 0x7F	; 127

000071d2 <.Loc.94>:
    andi    x2, USBMASK ;[02]
    71d2:	1c 70       	andi	r17, 0x0C	; 12

000071d4 <.Loc.95>:
    breq    se0         ;[03]
    71d4:	91 f1       	breq	.+100    	; 0x723a <se0>

000071d6 <.Loc.96>:
    subi    leap, -1    ;[04] total duration = 11 bits -> subtract 1/3
    71d6:	5f 5f       	subi	r21, 0xFF	; 255

000071d8 <.Loc.97>:
    nop2                ;[05]
    71d8:	00 c0       	rjmp	.+0      	; 0x71da <L0^A>

000071da <L0^A>:
    rjmp    didUnstuffO ;[06]
    71da:	25 c0       	rjmp	.+74     	; 0x7226 <didUnstuffO>

000071dc <rxByteLoop>:

rxByteLoop:
    andi    x1, USBMASK ;[03]
    71dc:	0c 70       	andi	r16, 0x0C	; 12

000071de <.Loc.100>:
    eor     x2, x1      ;[04]
    71de:	10 27       	eor	r17, r16

000071e0 <.Loc.101>:
    subi    leap, 1     ;[05]
    71e0:	51 50       	subi	r21, 0x01	; 1

000071e2 <.Loc.102>:
    brpl    skipLeap    ;[06]
    71e2:	12 f4       	brpl	.+4      	; 0x71e8 <skipLeap>

000071e4 <.Loc.103>:
    subi    leap, -3    ;1 one leap cycle every 3rd byte -> 85 + 1/3 cycles per byte
    71e4:	5d 5f       	subi	r21, 0xFD	; 253

000071e6 <.Loc.104>:
	...

000071e8 <skipLeap>:
    nop                 ;1
skipLeap:
    subi    x2, 1       ;[08]
    71e8:	11 50       	subi	r17, 0x01	; 1

000071ea <.Loc.106>:
    ror     shift       ;[09]
    71ea:	27 95       	ror	r18

000071ec <didUnstuff6>:
didUnstuff6:
    cpi     shift, 0xfc ;[10]
    71ec:	2c 3f       	cpi	r18, 0xFC	; 252

000071ee <.Loc.108>:
    in      x2, USBIN   ;[00] [11] <-- sample bit 7
    71ee:	10 b3       	in	r17, 0x10	; 16

000071f0 <.Loc.109>:
    brcc    unstuff6    ;[01]
    71f0:	c8 f6       	brcc	.-78     	; 0x71a4 <unstuff6>

000071f2 <.Loc.110>:
    andi    x2, USBMASK ;[02]
    71f2:	1c 70       	andi	r17, 0x0C	; 12

000071f4 <.Loc.111>:
    eor     x1, x2      ;[03]
    71f4:	01 27       	eor	r16, r17

000071f6 <.Loc.112>:
    subi    x1, 1       ;[04]
    71f6:	01 50       	subi	r16, 0x01	; 1

000071f8 <.Loc.113>:
    ror     shift       ;[05]
    71f8:	27 95       	ror	r18

000071fa <didUnstuff7>:
didUnstuff7:
    cpi     shift, 0xfc ;[06]
    71fa:	2c 3f       	cpi	r18, 0xFC	; 252

000071fc <.Loc.115>:
    brcc    unstuff7    ;[07]
    71fc:	c8 f6       	brcc	.-78     	; 0x71b0 <unstuff7>

000071fe <.Loc.116>:
    eor     x3, shift   ;[08] reconstruct: x3 is 1 at bit locations we changed, 0 at others
    71fe:	42 27       	eor	r20, r18

00007200 <.Loc.117>:
    st      y+, x3      ;[09] store data
    7200:	49 93       	st	Y+, r20

00007202 <rxBitLoop>:
rxBitLoop:
    in      x1, USBIN   ;[00] [11] <-- sample bit 0/2/4
    7202:	00 b3       	in	r16, 0x10	; 16

00007204 <.Loc.119>:
    andi    x1, USBMASK ;[01]
    7204:	0c 70       	andi	r16, 0x0C	; 12

00007206 <.Loc.120>:
    eor     x2, x1      ;[02]
    7206:	10 27       	eor	r17, r16

00007208 <.Loc.121>:
    andi    x3, 0x3f    ;[03] topmost two bits reserved for 6 and 7
    7208:	4f 73       	andi	r20, 0x3F	; 63

0000720a <.Loc.122>:
    subi    x2, 1       ;[04]
    720a:	11 50       	subi	r17, 0x01	; 1

0000720c <.Loc.123>:
    ror     shift       ;[05]
    720c:	27 95       	ror	r18

0000720e <.Loc.124>:
    cpi     shift, 0xfc ;[06]
    720e:	2c 3f       	cpi	r18, 0xFC	; 252

00007210 <.Loc.125>:
    brcc    unstuffEven ;[07]
    7210:	a8 f6       	brcc	.-86     	; 0x71bc <unstuffEven>

00007212 <didUnstuffE>:
didUnstuffE:
    lsr     x3          ;[08]
    7212:	46 95       	lsr	r20

00007214 <.Loc.127>:
    lsr     x3          ;[09]
    7214:	46 95       	lsr	r20

00007216 <rxbit1>:
rxbit1:
    in      x2, USBIN   ;[00] [10] <-- sample bit 1/3/5
    7216:	10 b3       	in	r17, 0x10	; 16

00007218 <.Loc.129>:
    andi    x2, USBMASK ;[01]
    7218:	1c 70       	andi	r17, 0x0C	; 12

0000721a <.Loc.130>:
    breq    se0         ;[02]
    721a:	79 f0       	breq	.+30     	; 0x723a <se0>

0000721c <.Loc.131>:
    eor     x1, x2      ;[03]
    721c:	01 27       	eor	r16, r17

0000721e <.Loc.132>:
    subi    x1, 1       ;[04]
    721e:	01 50       	subi	r16, 0x01	; 1

00007220 <.Loc.133>:
    ror     shift       ;[05]
    7220:	27 95       	ror	r18

00007222 <.Loc.134>:
    cpi     shift, 0xfc ;[06]
    7222:	2c 3f       	cpi	r18, 0xFC	; 252

00007224 <.Loc.135>:
    brcc    unstuffOdd  ;[07]
    7224:	98 f6       	brcc	.-90     	; 0x71cc <unstuffOdd>

00007226 <didUnstuffO>:
didUnstuffO:
    subi    bitcnt, 0xab;[08] == addi 0x55, 0x55 = 0x100/3
    7226:	6b 5a       	subi	r22, 0xAB	; 171

00007228 <.Loc.137>:
    brcs    rxBitLoop   ;[09]
    7228:	60 f3       	brcs	.-40     	; 0x7202 <rxBitLoop>

0000722a <.Loc.138>:

    subi    cnt, 1      ;[10]
    722a:	31 50       	subi	r19, 0x01	; 1

0000722c <.Loc.139>:
    in      x1, USBIN   ;[00] [11] <-- sample bit 6
    722c:	00 b3       	in	r16, 0x10	; 16

0000722e <.Loc.140>:
    brcc    rxByteLoop  ;[01]
    722e:	b0 f6       	brcc	.-84     	; 0x71dc <rxByteLoop>

00007230 <.Loc.141>:
    rjmp    overflow
    7230:	00 c0       	rjmp	.+0      	; 0x7232 <overflow>

00007232 <overflow>:
*/

#define token   x1

overflow:
    ldi     x2, 1<<USB_INTR_PENDING_BIT
    7232:	10 e4       	ldi	r17, 0x40	; 64

00007234 <.Loc.143>:
    USB_STORE_PENDING(x2)       ; clear any pending interrupts
    7234:	1a bf       	out	0x3a, r17	; 58

00007236 <ignorePacket>:
ignorePacket:
    clr     token
    7236:	00 27       	eor	r16, r16

00007238 <.Loc.145>:
    rjmp    storeTokenAndReturn
    7238:	17 c0       	rjmp	.+46     	; 0x7268 <handleSetupOrOut>

0000723a <se0>:
; Processing of received packet (numbers in brackets are cycles after center of SE0)
;----------------------------------------------------------------------------
;This is the only non-error exit point for the software receiver loop
;we don't check any CRCs here because there is no time left.
se0:
    subi    cnt, USB_BUFSIZE    ;[5]
    723a:	3b 50       	subi	r19, 0x0B	; 11

0000723c <.Loc.147>:
    neg     cnt                 ;[6]
    723c:	31 95       	neg	r19

0000723e <.Loc.148>:
    sub     YL, cnt             ;[7]
    723e:	c3 1b       	sub	r28, r19

00007240 <.Loc.149>:
    sbci    YH, 0               ;[8]
    7240:	d0 40       	sbci	r29, 0x00	; 0

00007242 <.Loc.150>:
    ldi     x2, 1<<USB_INTR_PENDING_BIT ;[9]
    7242:	10 e4       	ldi	r17, 0x40	; 64

00007244 <.Loc.151>:
    USB_STORE_PENDING(x2)       ;[10] clear pending intr and check flag later. SE0 should be over.
    7244:	1a bf       	out	0x3a, r17	; 58

00007246 <.Loc.152>:
    ld      token, y            ;[11]
    7246:	08 81       	ld	r16, Y

00007248 <.Loc.153>:
    cpi     token, USBPID_DATA0 ;[13]
    7248:	03 3c       	cpi	r16, 0xC3	; 195

0000724a <.Loc.154>:
    breq    handleData          ;[14]
    724a:	f9 f0       	breq	.+62     	; 0x728a <handleData>

0000724c <.Loc.155>:
    cpi     token, USBPID_DATA1 ;[15]
    724c:	0b 34       	cpi	r16, 0x4B	; 75

0000724e <.Loc.156>:
    breq    handleData          ;[16]
    724e:	e9 f0       	breq	.+58     	; 0x728a <handleData>

00007250 <.Loc.157>:
    lds     shift, usbDeviceAddr;[17]
    7250:	20 91 7c 00 	lds	r18, 0x007C	; 0x80007c <usbDeviceAddr>

00007254 <.Loc.158>:
    ldd     x2, y+1             ;[19] ADDR and 1 bit endpoint number
    7254:	19 81       	ldd	r17, Y+1	; 0x01

00007256 <.Loc.159>:
    lsl     x2                  ;[21] shift out 1 bit endpoint number
    7256:	11 0f       	add	r17, r17

00007258 <.Loc.160>:
    cpse    x2, shift           ;[22]
    7258:	12 13       	cpse	r17, r18

0000725a <.Loc.161>:
    rjmp    ignorePacket        ;[23]
    725a:	ed cf       	rjmp	.-38     	; 0x7236 <ignorePacket>

0000725c <.Loc.162>:
/* only compute endpoint number in x3 if required later */
#if USB_CFG_HAVE_INTRIN_ENDPOINT || USB_CFG_IMPLEMENT_FN_WRITEOUT
    ldd     x3, y+2             ;[24] endpoint number + crc
    rol     x3                  ;[26] shift in LSB of endpoint
#endif
    cpi     token, USBPID_IN    ;[27]
    725c:	09 36       	cpi	r16, 0x69	; 105

0000725e <.Loc.163>:
    breq    handleIn            ;[28]
    725e:	51 f1       	breq	.+84     	; 0x72b4 <handleIn>

00007260 <.Loc.164>:
    cpi     token, USBPID_SETUP ;[29]
    7260:	0d 32       	cpi	r16, 0x2D	; 45

00007262 <.Loc.165>:
    breq    handleSetupOrOut    ;[30]
    7262:	11 f0       	breq	.+4      	; 0x7268 <handleSetupOrOut>

00007264 <.Loc.166>:
    cpi     token, USBPID_OUT   ;[31]
    7264:	01 3e       	cpi	r16, 0xE1	; 225

00007266 <.Loc.167>:
    brne    ignorePacket        ;[32] must be ack, nak or whatever
    7266:	39 f7       	brne	.-50     	; 0x7236 <ignorePacket>

00007268 <handleSetupOrOut>:
    andi    x3, 0xf             ;[32]
    breq    storeTokenAndReturn ;[33]
    mov     token, x3           ;[34] indicate that this is endpoint x OUT
#endif
storeTokenAndReturn:
    sts     usbCurrentTok, token;[35]
    7268:	00 93 83 00 	sts	0x0083, r16	; 0x800083 <usbCurrentTok>

0000726c <doReturn>:
doReturn:
    POP_STANDARD                ;[37] 12...16 cycles
    726c:	3f 91       	pop	r19
    726e:	5f 91       	pop	r21
    7270:	4f 91       	pop	r20
    7272:	1f 91       	pop	r17
    7274:	0f 91       	pop	r16
    7276:	2f 91       	pop	r18
    7278:	6f 91       	pop	r22

0000727a <.Loc.170>:
    USB_LOAD_PENDING(YL)        ;[49]
    727a:	ca b7       	in	r28, 0x3a	; 58

0000727c <.Loc.171>:
    sbrc    YL, USB_INTR_PENDING_BIT;[50] check whether data is already arriving
    727c:	c6 fd       	sbrc	r28, 6

0000727e <.Loc.172>:
    rjmp    waitForJ            ;[51] save the pops and pushes -- a new interrupt is already pending
    727e:	67 cf       	rjmp	.-306    	; 0x714e <waitForJ>

00007280 <sofError>:
sofError:
    POP_RETI                    ;macro call
    7280:	df 91       	pop	r29
    7282:	cf 91       	pop	r28
    7284:	cf bf       	out	0x3f, r28	; 63
    7286:	cf 91       	pop	r28

00007288 <.Loc.174>:
    reti
    7288:	18 95       	reti

0000728a <handleData>:

handleData:
#if USB_CFG_CHECK_CRC
    CRC_CLEANUP_AND_CHECK       ; jumps to ignorePacket if CRC error
#endif
    lds     shift, usbCurrentTok;[18]
    728a:	20 91 83 00 	lds	r18, 0x0083	; 0x800083 <usbCurrentTok>

0000728e <.Loc.176>:
    tst     shift               ;[20]
    728e:	22 23       	and	r18, r18

00007290 <.Loc.177>:
    breq    doReturn            ;[21]
    7290:	69 f3       	breq	.-38     	; 0x726c <doReturn>

00007292 <.Loc.178>:
    lds     x2, usbRxLen        ;[22]
    7292:	10 91 81 00 	lds	r17, 0x0081	; 0x800081 <usbRxLen>

00007296 <.Loc.179>:
    tst     x2                  ;[24]
    7296:	11 23       	and	r17, r17

00007298 <.Loc.180>:
    brne    sendNakAndReti      ;[25]
    7298:	39 f5       	brne	.+78     	; 0x72e8 <sendNakAndReti>

0000729a <.Loc.181>:
; 2006-03-11: The following two lines fix a problem where the device was not
; recognized if usbPoll() was called less frequently than once every 4 ms.
    cpi     cnt, 4              ;[26] zero sized data packets are status phase only -- ignore and ack
    729a:	34 30       	cpi	r19, 0x04	; 4

0000729c <.Loc.182>:
    brmi    sendAckAndReti      ;[27] keep rx buffer clean -- we must not NAK next SETUP
    729c:	3a f1       	brmi	.+78     	; 0x72ec <sendAckAndReti>

0000729e <.Loc.183>:
#if USB_CFG_CHECK_DATA_TOGGLING
    sts     usbCurrentDataToken, token  ; store for checking by C code
#endif
    sts     usbRxLen, cnt       ;[28] store received data, swap buffers
    729e:	30 93 81 00 	sts	0x0081, r19	; 0x800081 <usbRxLen>

000072a2 <.Loc.184>:
    sts     usbRxToken, shift   ;[30]
    72a2:	20 93 7d 00 	sts	0x007D, r18	; 0x80007d <usbRxToken>

000072a6 <.Loc.185>:
    lds     x2, usbInputBufOffset;[32] swap buffers
    72a6:	10 91 7e 00 	lds	r17, 0x007E	; 0x80007e <usbInputBufOffset>

000072aa <.Loc.186>:
    ldi     cnt, USB_BUFSIZE    ;[34]
    72aa:	3b e0       	ldi	r19, 0x0B	; 11

000072ac <.Loc.187>:
    sub     cnt, x2             ;[35]
    72ac:	31 1b       	sub	r19, r17

000072ae <.Loc.188>:
    sts     usbInputBufOffset, cnt;[36] buffers now swapped
    72ae:	30 93 7e 00 	sts	0x007E, r19	; 0x80007e <usbInputBufOffset>

000072b2 <.Loc.189>:
    rjmp    sendAckAndReti      ;[38] 40 + 17 = 57 until SOP
    72b2:	1c c0       	rjmp	.+56     	; 0x72ec <sendAckAndReti>

000072b4 <handleIn>:

handleIn:
;We don't send any data as long as the C code has not processed the current
;input data and potentially updated the output data. That's more efficient
;in terms of code size than clearing the tx buffers when a packet is received.
    lds     x1, usbRxLen        ;[30]
    72b4:	00 91 81 00 	lds	r16, 0x0081	; 0x800081 <usbRxLen>

000072b8 <.Loc.191>:
    cpi     x1, 1               ;[32] negative values are flow control, 0 means "buffer free"
    72b8:	01 30       	cpi	r16, 0x01	; 1

000072ba <.Loc.192>:
    brge    sendNakAndReti      ;[33] unprocessed input packet?
    72ba:	b4 f4       	brge	.+44     	; 0x72e8 <sendNakAndReti>

000072bc <.Loc.193>:
    ldi     x1, USBPID_NAK      ;[34] prepare value for usbTxLen
    72bc:	0a e5       	ldi	r16, 0x5A	; 90

000072be <.Loc.194>:
    brne    sendNakAndReti      ;[36]
#else
    brne    handleIn1           ;[36]
#endif
#endif
    lds     cnt, usbTxLen       ;[37]
    72be:	30 91 61 00 	lds	r19, 0x0061	; 0x800061 <usbTxLen>

000072c2 <.Loc.195>:
    sbrc    cnt, 4              ;[39] all handshake tokens have bit 4 set
    72c2:	34 fd       	sbrc	r19, 4

000072c4 <.Loc.196>:
    rjmp    sendCntAndReti      ;[40] 42 + 16 = 58 until SOP
    72c4:	14 c0       	rjmp	.+40     	; 0x72ee <sendCntAndReti>

000072c6 <.Loc.197>:
    sts     usbTxLen, x1        ;[41] x1 == USBPID_NAK from above
    72c6:	00 93 61 00 	sts	0x0061, r16	; 0x800061 <usbTxLen>

000072ca <.Loc.198>:
    ldi     YL, lo8(usbTxBuf)   ;[43]
    72ca:	c1 e7       	ldi	r28, 0x71	; 113

000072cc <.Loc.199>:
    ldi     YH, hi8(usbTxBuf)   ;[44]
    72cc:	d0 e0       	ldi	r29, 0x00	; 0

000072ce <.Loc.200>:
    rjmp    usbSendAndReti      ;[45] 57 + 12 = 59 until SOP
    72ce:	13 c0       	rjmp	.+38     	; 0x72f6 <usbSendAndReti>

000072d0 <bitstuffN>:
; J = (D+ = 0), (D- = 1)
; K = (D+ = 1), (D- = 0)
; Spec allows 7.5 bit times from EOP to SOP for replies

bitstuffN:
    eor     x1, x4          ;[5]
    72d0:	05 27       	eor	r16, r21

000072d2 <.Loc.202>:
    ldi     x2, 0           ;[6]
    72d2:	10 e0       	ldi	r17, 0x00	; 0

000072d4 <.Loc.203>:
    nop2                    ;[7]
    72d4:	00 c0       	rjmp	.+0      	; 0x72d6 <L0^A>

000072d6 <L0^A>:
	...

000072d8 <.Loc.205>:
    nop                     ;[9]
    out     USBOUT, x1      ;[10] <-- out
    72d8:	02 bb       	out	0x12, r16	; 18

000072da <.Loc.206>:
    rjmp    didStuffN       ;[0]
    72da:	1a c0       	rjmp	.+52     	; 0x7310 <didStuffN>

000072dc <bitstuff6>:
    
bitstuff6:
    eor     x1, x4          ;[5]
    72dc:	05 27       	eor	r16, r21

000072de <.Loc.208>:
    ldi     x2, 0           ;[6] Carry is zero due to brcc
    72de:	10 e0       	ldi	r17, 0x00	; 0

000072e0 <.Loc.209>:
    rol     shift           ;[7] compensate for ror shift at branch destination
    72e0:	22 1f       	adc	r18, r18

000072e2 <.Loc.210>:
    rjmp    didStuff6       ;[8]
    72e2:	1d c0       	rjmp	.+58     	; 0x731e <didStuff6>

000072e4 <bitstuff7>:

bitstuff7:
    ldi     x2, 0           ;[2] Carry is zero due to brcc
    72e4:	10 e0       	ldi	r17, 0x00	; 0

000072e6 <.Loc.212>:
    rjmp    didStuff7       ;[3]
    72e6:	21 c0       	rjmp	.+66     	; 0x732a <didStuff7>

000072e8 <sendNakAndReti>:


sendNakAndReti:
    ldi     x3, USBPID_NAK  ;[-18]
    72e8:	4a e5       	ldi	r20, 0x5A	; 90

000072ea <.Loc.214>:
    rjmp    sendX3AndReti   ;[-17]
    72ea:	02 c0       	rjmp	.+4      	; 0x72f0 <sendX3AndReti>

000072ec <sendAckAndReti>:
sendAckAndReti:
    ldi     cnt, USBPID_ACK ;[-17]
    72ec:	32 ed       	ldi	r19, 0xD2	; 210

000072ee <sendCntAndReti>:
sendCntAndReti:
    mov     x3, cnt         ;[-16]
    72ee:	43 2f       	mov	r20, r19

000072f0 <sendX3AndReti>:
sendX3AndReti:
    ldi     YL, 20          ;[-15] x3==r20 address is 20
    72f0:	c4 e1       	ldi	r28, 0x14	; 20

000072f2 <.Loc.218>:
    ldi     YH, 0           ;[-14]
    72f2:	d0 e0       	ldi	r29, 0x00	; 0

000072f4 <.Loc.219>:
    ldi     cnt, 2          ;[-13]
    72f4:	32 e0       	ldi	r19, 0x02	; 2

000072f6 <usbSendAndReti>:
;uses: x1...x4, btcnt, shift, cnt, Y
;Numbers in brackets are time since first bit of sync pattern is sent
;We don't match the transfer rate exactly (don't insert leap cycles every third
;byte) because the spec demands only 1.5% precision anyway.
usbSendAndReti:             ; 12 cycles until SOP
    in      x2, USBDDR      ;[-12]
    72f6:	11 b3       	in	r17, 0x11	; 17

000072f8 <.Loc.221>:
    ori     x2, USBMASK     ;[-11]
    72f8:	1c 60       	ori	r17, 0x0C	; 12

000072fa <.Loc.222>:
    sbi     USBOUT, USBMINUS;[-10] prepare idle state; D+ and D- must have been 0 (no pullups)
    72fa:	93 9a       	sbi	0x12, 3	; 18

000072fc <.Loc.223>:
    in      x1, USBOUT      ;[-8] port mirror for tx loop
    72fc:	02 b3       	in	r16, 0x12	; 18

000072fe <.Loc.224>:
    out     USBDDR, x2      ;[-7] <- acquire bus
    72fe:	11 bb       	out	0x11, r17	; 17

00007300 <.Loc.225>:
; need not init x2 (bitstuff history) because sync starts with 0
    ldi     x4, USBMASK     ;[-6] exor mask
    7300:	5c e0       	ldi	r21, 0x0C	; 12

00007302 <.Loc.226>:
    ldi     shift, 0x80     ;[-5] sync byte is first byte sent
    7302:	20 e8       	ldi	r18, 0x80	; 128

00007304 <txByteLoop>:
txByteLoop:
    ldi     bitcnt, 0x35    ;[-4] [6] binary 0011 0101
    7304:	65 e3       	ldi	r22, 0x35	; 53

00007306 <txBitLoop>:
txBitLoop:
    sbrs    shift, 0        ;[-3] [7]
    7306:	20 ff       	sbrs	r18, 0

00007308 <.Loc.229>:
    eor     x1, x4          ;[-2] [8]
    7308:	05 27       	eor	r16, r21

0000730a <.Loc.230>:
    out     USBOUT, x1      ;[-1] [9] <-- out N
    730a:	02 bb       	out	0x12, r16	; 18

0000730c <.Loc.231>:
    ror     shift           ;[0] [10]
    730c:	27 95       	ror	r18

0000730e <.Loc.232>:
    ror     x2              ;[1]
    730e:	17 95       	ror	r17

00007310 <didStuffN>:
didStuffN:
    cpi     x2, 0xfc        ;[2]
    7310:	1c 3f       	cpi	r17, 0xFC	; 252

00007312 <.Loc.234>:
    brcc    bitstuffN       ;[3]
    7312:	f0 f6       	brcc	.-68     	; 0x72d0 <bitstuffN>

00007314 <.Loc.235>:
    lsr     bitcnt          ;[4]
    7314:	66 95       	lsr	r22

00007316 <.Loc.236>:
    brcc    txBitLoop       ;[5]
    7316:	b8 f7       	brcc	.-18     	; 0x7306 <txBitLoop>

00007318 <.Loc.237>:
    brne    txBitLoop       ;[6]
    7318:	b1 f7       	brne	.-20     	; 0x7306 <txBitLoop>

0000731a <.Loc.238>:

    sbrs    shift, 0        ;[7]
    731a:	20 ff       	sbrs	r18, 0

0000731c <.Loc.239>:
    eor     x1, x4          ;[8]
    731c:	05 27       	eor	r16, r21

0000731e <didStuff6>:
didStuff6:
    out     USBOUT, x1      ;[-1] [9] <-- out 6
    731e:	02 bb       	out	0x12, r16	; 18

00007320 <.Loc.241>:
    ror     shift           ;[0] [10]
    7320:	27 95       	ror	r18

00007322 <.Loc.242>:
    ror     x2              ;[1]
    7322:	17 95       	ror	r17

00007324 <.Loc.243>:
    cpi     x2, 0xfc        ;[2]
    7324:	1c 3f       	cpi	r17, 0xFC	; 252

00007326 <.Loc.244>:
    brcc    bitstuff6       ;[3]
    7326:	d0 f6       	brcc	.-76     	; 0x72dc <bitstuff6>

00007328 <.Loc.245>:
    ror     shift           ;[4]
    7328:	27 95       	ror	r18

0000732a <didStuff7>:
didStuff7:
    ror     x2              ;[5]
    732a:	17 95       	ror	r17

0000732c <.Loc.247>:
    sbrs    x2, 7           ;[6]
    732c:	17 ff       	sbrs	r17, 7

0000732e <.Loc.248>:
    eor     x1, x4          ;[7]
    732e:	05 27       	eor	r16, r21

00007330 <.Loc.249>:
	...

00007332 <.Loc.250>:
    nop                     ;[8]
    cpi     x2, 0xfc        ;[9]
    7332:	1c 3f       	cpi	r17, 0xFC	; 252

00007334 <.Loc.251>:
    out     USBOUT, x1      ;[-1][10] <-- out 7
    7334:	02 bb       	out	0x12, r16	; 18

00007336 <.Loc.252>:
    brcc    bitstuff7       ;[0] [11]
    7336:	b0 f6       	brcc	.-84     	; 0x72e4 <bitstuff7>

00007338 <.Loc.253>:
    ld      shift, y+       ;[1]
    7338:	29 91       	ld	r18, Y+

0000733a <.Loc.254>:
    dec     cnt             ;[3]
    733a:	3a 95       	dec	r19

0000733c <.Loc.255>:
    brne    txByteLoop      ;[4]
    733c:	19 f7       	brne	.-58     	; 0x7304 <txByteLoop>

0000733e <.Loc.256>:
;make SE0:
    cbr     x1, USBMASK     ;[5] prepare SE0 [spec says EOP may be 21 to 25 cycles]
    733e:	03 7f       	andi	r16, 0xF3	; 243

00007340 <.Loc.257>:
    lds     x2, usbNewDeviceAddr;[6]
    7340:	10 91 82 00 	lds	r17, 0x0082	; 0x800082 <usbNewDeviceAddr>

00007344 <.Loc.258>:
    lsl     x2              ;[8] we compare with left shifted address
    7344:	11 0f       	add	r17, r17

00007346 <.Loc.259>:
    subi    YL, 20 + 2      ;[9] Only assign address on data packets, not ACK/NAK in x3
    7346:	c6 51       	subi	r28, 0x16	; 22

00007348 <.Loc.260>:
    sbci    YH, 0           ;[10]
    7348:	d0 40       	sbci	r29, 0x00	; 0

0000734a <.Loc.261>:
    out     USBOUT, x1      ;[11] <-- out SE0 -- from now 2 bits = 22 cycles until bus idle
    734a:	02 bb       	out	0x12, r16	; 18

0000734c <.Loc.262>:
;2006-03-06: moved transfer of new address to usbDeviceAddr from C-Code to asm:
;set address only after data packet was sent, not after handshake
    breq    skipAddrAssign  ;[0]
    734c:	11 f0       	breq	.+4      	; 0x7352 <skipAddrAssign>

0000734e <.Loc.263>:
    sts     usbDeviceAddr, x2; if not skipped: SE0 is one cycle longer
    734e:	10 93 7c 00 	sts	0x007C, r17	; 0x80007c <usbDeviceAddr>

00007352 <skipAddrAssign>:
skipAddrAssign:
;end of usbDeviceAddress transfer
    ldi     x2, 1<<USB_INTR_PENDING_BIT;[2] int0 occurred during TX -- clear pending flag
    7352:	10 e4       	ldi	r17, 0x40	; 64

00007354 <.Loc.265>:
    USB_STORE_PENDING(x2)   ;[3]
    7354:	1a bf       	out	0x3a, r17	; 58

00007356 <.Loc.266>:
    ori     x1, USBIDLE     ;[4]
    7356:	08 60       	ori	r16, 0x08	; 8

00007358 <.Loc.267>:
    in      x2, USBDDR      ;[5]
    7358:	11 b3       	in	r17, 0x11	; 17

0000735a <.Loc.268>:
    cbr     x2, USBMASK     ;[6] set both pins to input
    735a:	13 7f       	andi	r17, 0xF3	; 243

0000735c <.Loc.269>:
    mov     x3, x1          ;[7]
    735c:	40 2f       	mov	r20, r16

0000735e <.Loc.270>:
    cbr     x3, USBMASK     ;[8] configure no pullup on both pins
    735e:	43 7f       	andi	r20, 0xF3	; 243

00007360 <.Loc.271>:
    ldi     x4, 4           ;[9]
    7360:	54 e0       	ldi	r21, 0x04	; 4

00007362 <se0Delay>:
se0Delay:
    dec     x4              ;[10] [13] [16] [19]
    7362:	5a 95       	dec	r21

00007364 <.Loc.273>:
    brne    se0Delay        ;[11] [14] [17] [20]
    7364:	f1 f7       	brne	.-4      	; 0x7362 <se0Delay>

00007366 <.Loc.274>:
    out     USBOUT, x1      ;[21] <-- out J (idle) -- end of SE0 (EOP signal)
    7366:	02 bb       	out	0x12, r16	; 18

00007368 <.Loc.275>:
    out     USBDDR, x2      ;[22] <-- release bus now
    7368:	11 bb       	out	0x11, r17	; 17

0000736a <.Loc.276>:
    out     USBOUT, x3      ;[23] <-- ensure no pull-up resistors are active
    736a:	42 bb       	out	0x12, r20	; 18

0000736c <.Loc.277>:
    rjmp    doReturn
    736c:	7f cf       	rjmp	.-258    	; 0x726c <doReturn>

0000736e <usbFunctionSetup_USBASP_FUNC_TRANSMIT>:
#endif

/* ------------------------------------------------------------------------ */


uchar usbFunctionSetup_USBASP_FUNC_TRANSMIT(usbRequest_t *rq) {
    736e:	dc 01       	movw	r26, r24

00007370 <.LVL1>:
  uchar rval = 0;
  usbWord_t address;
  address.bytes[1] = rq->wValue.bytes[1];
    7370:	13 96       	adiw	r26, 0x03	; 3
    7372:	4c 91       	ld	r20, X
    7374:	13 97       	sbiw	r26, 0x03	; 3

00007376 <.Loc.10>:
  address.bytes[0] = rq->wIndex.bytes[0];
    7376:	14 96       	adiw	r26, 0x04	; 4
    7378:	3c 91       	ld	r19, X
    737a:	14 97       	sbiw	r26, 0x04	; 4

0000737c <.Loc.11>:
    737c:	13 96       	adiw	r26, 0x03	; 3
    737e:	8d 91       	ld	r24, X+
    7380:	9c 91       	ld	r25, X
    7382:	14 97       	sbiw	r26, 0x04	; 4

00007384 <.LVL2>:
    7384:	98 27       	eor	r25, r24
    7386:	89 27       	eor	r24, r25
    7388:	98 27       	eor	r25, r24

0000738a <.Loc.13>:

  if(rq->wValue.bytes[0] == 0x30){        /* read signature */
    738a:	12 96       	adiw	r26, 0x02	; 2
    738c:	2c 91       	ld	r18, X
    738e:	12 97       	sbiw	r26, 0x02	; 2

00007390 <.Loc.15>:
    7390:	20 33       	cpi	r18, 0x30	; 48
    7392:	39 f4       	brne	.+14     	; 0x73a2 <.L3>

00007394 <.LVL3>:
    rval = rq->wIndex.bytes[0] & 3;
    7394:	33 70       	andi	r19, 0x03	; 3

00007396 <.LVL4>:
    rval = signatureBytes[rval];
    7396:	e3 2f       	mov	r30, r19
    7398:	f0 e0       	ldi	r31, 0x00	; 0

0000739a <.Loc.20>:
    739a:	ee 59       	subi	r30, 0x9E	; 158
    739c:	ff 4f       	sbci	r31, 0xFF	; 255
    739e:	80 81       	ld	r24, Z

000073a0 <.LVL5>:
    73a0:	08 95       	ret

000073a2 <.L3>:
#if HAVE_READ_LOCK_FUSE
#if defined (__AVR_ATmega8535__) || 					\
    defined (__AVR_ATmega8__) || defined (__AVR_ATmega8A__) || 		\
    defined (__AVR_ATmega16__) || defined (__AVR_ATmega32__)
  }else if(rq->wValue.bytes[0] == 0x58 && rq->wValue.bytes[1] == 0x00){  /* read lock bits */
    73a2:	28 35       	cpi	r18, 0x58	; 88
    73a4:	61 f4       	brne	.+24     	; 0x73be <.L5>

000073a6 <.LBB22>:
      rval = boot_lock_fuse_bits_get(GET_LOCK_BITS);
    73a6:	89 e0       	ldi	r24, 0x09	; 9
    73a8:	e1 e0       	ldi	r30, 0x01	; 1
    73aa:	f0 e0       	ldi	r31, 0x00	; 0

000073ac <.LBE22>:
  }else if(rq->wValue.bytes[0] == 0x58 && rq->wValue.bytes[1] == 0x00){  /* read lock bits */
    73ac:	44 23       	and	r20, r20
    73ae:	71 f0       	breq	.+28     	; 0x73cc <.L15>

000073b0 <.LBB23>:
  }else if(rq->wValue.bytes[0] == 0x50 && rq->wValue.bytes[1] == 0x00){  /* read lfuse bits */
      rval = boot_lock_fuse_bits_get(GET_LOW_FUSE_BITS);
  }else if(rq->wValue.bytes[0] == 0x58 && rq->wValue.bytes[1] == 0x08){  /* read hfuse bits */
      rval = boot_lock_fuse_bits_get(GET_HIGH_FUSE_BITS);
    73b0:	89 e0       	ldi	r24, 0x09	; 9
    73b2:	e3 e0       	ldi	r30, 0x03	; 3
    73b4:	f0 e0       	ldi	r31, 0x00	; 0

000073b6 <.LBE23>:
  }else if(rq->wValue.bytes[0] == 0x58 && rq->wValue.bytes[1] == 0x08){  /* read hfuse bits */
    73b6:	48 30       	cpi	r20, 0x08	; 8
    73b8:	49 f0       	breq	.+18     	; 0x73cc <.L15>

000073ba <.L14>:
  uchar rval = 0;
    73ba:	80 e0       	ldi	r24, 0x00	; 0

000073bc <.Loc.30>:
  }else{
      /* ignore all others, return default value == 0 */
  }
        
  return rval;
}
    73bc:	08 95       	ret

000073be <.L5>:
  }else if(rq->wValue.bytes[0] == 0x50 && rq->wValue.bytes[1] == 0x00){  /* read lfuse bits */
    73be:	20 35       	cpi	r18, 0x50	; 80
    73c0:	49 f4       	brne	.+18     	; 0x73d4 <.L7>

000073c2 <.Loc.35>:
    73c2:	41 11       	cpse	r20, r1
    73c4:	fa cf       	rjmp	.-12     	; 0x73ba <.L14>

000073c6 <.LBB24>:
      rval = boot_lock_fuse_bits_get(GET_LOW_FUSE_BITS);
    73c6:	89 e0       	ldi	r24, 0x09	; 9
    73c8:	f0 e0       	ldi	r31, 0x00	; 0
    73ca:	e0 e0       	ldi	r30, 0x00	; 0

000073cc <.L15>:
    73cc:	80 93 57 00 	sts	0x0057, r24	; 0x800057 <__TEXT_REGION_LENGTH__+0x7e0057>
    73d0:	84 91       	lpm	r24, Z

000073d2 <.LBE24>:
    73d2:	08 95       	ret

000073d4 <.L7>:
  }else if(rq->wValue.bytes[0] == 0x20){  /* read FLASH low  byte */
    73d4:	20 32       	cpi	r18, 0x20	; 32
    73d6:	29 f4       	brne	.+10     	; 0x73e2 <.L8>

000073d8 <.LBB25>:
      rval = pgm_read_byte((((addr_t)address.word)<<1)+0);
    73d8:	88 0f       	add	r24, r24
    73da:	99 1f       	adc	r25, r25

000073dc <.L16>:
      rval = pgm_read_byte((((addr_t)address.word)<<1)+1);
    73dc:	fc 01       	movw	r30, r24
    73de:	84 91       	lpm	r24, Z

000073e0 <.LBE26>:
    73e0:	08 95       	ret

000073e2 <.L8>:
  }else if(rq->wValue.bytes[0] == 0x28){  /* read FLASH high byte */
    73e2:	28 32       	cpi	r18, 0x28	; 40
    73e4:	21 f4       	brne	.+8      	; 0x73ee <.L9>

000073e6 <.LBB27>:
      rval = pgm_read_byte((((addr_t)address.word)<<1)+1);
    73e6:	88 0f       	add	r24, r24
    73e8:	99 1f       	adc	r25, r25

000073ea <.LVL16>:
    73ea:	01 96       	adiw	r24, 0x01	; 1

000073ec <.LVL17>:
    73ec:	f7 cf       	rjmp	.-18     	; 0x73dc <.L16>

000073ee <.L9>:
  }else if(rq->wValue.bytes[0] == 0xa0){  /* read EEPROM byte */
    73ee:	20 3a       	cpi	r18, 0xA0	; 160
    73f0:	09 f4       	brne	.+2      	; 0x73f4 <.L10>

000073f2 <.Loc.64>:
      rval = eeprom_read_byte((void *)address.word);
    73f2:	1b c2       	rjmp	.+1078   	; 0x782a <eeprom_read_byte>

000073f4 <.L10>:
  }else if(rq->wValue.bytes[0] == 0xc0){  /* write EEPROM byte */
    73f4:	20 3c       	cpi	r18, 0xC0	; 192
    73f6:	21 f4       	brne	.+8      	; 0x7400 <.L11>

000073f8 <.Loc.68>:
      eeprom_write_byte((void *)address.word, rq->wIndex.bytes[1]);
    73f8:	15 96       	adiw	r26, 0x05	; 5
    73fa:	6c 91       	ld	r22, X
    73fc:	1e d2       	rcall	.+1084   	; 0x783a <eeprom_write_byte>

000073fe <.LVL20>:
    73fe:	dd cf       	rjmp	.-70     	; 0x73ba <.L14>

00007400 <.L11>:
  }else if(rq->wValue.bytes[0] == (HAVE_BOOTLOADER_HIDDENEXITCOMMAND)){  /* cause a bootLoaderExit at disconnect */
    7400:	2f 3f       	cpi	r18, 0xFF	; 255
    7402:	d9 f6       	brne	.-74     	; 0x73ba <.L14>

00007404 <.Loc.72>:
      stayinloader = 0xf1;  /* we need to be connected - so assume it */
    7404:	81 ef       	ldi	r24, 0xF1	; 241
    7406:	80 93 6f 00 	sts	0x006F, r24	; 0x80006f <stayinloader>
    740a:	d7 cf       	rjmp	.-82     	; 0x73ba <.L14>

0000740c <main>:

static inline void  bootLoaderInit(void)
{
#if (BOOTLOADER_IGNOREPROGBUTTON)
#else
    PIN_DDR(JUMPER_PORT)  = 0;
    740c:	11 ba       	out	0x11, r1	; 17

0000740e <.Loc.79>:
    PIN_PORT(JUMPER_PORT) = (1<< PIN(JUMPER_PORT, JUMPER_BIT)); /* activate pull-up */
    740e:	80 e1       	ldi	r24, 0x10	; 16
    7410:	82 bb       	out	0x12, r24	; 18

00007412 <.LBE75>:
    /* initialize  */
    bootLoaderInit();
    odDebugInit();
    DBG1(0x00, 0, 0);
#ifndef NO_FLASH_WRITE
    GICR = (1 << IVCE);  /* enable change of interrupt vectors */
    7412:	81 e0       	ldi	r24, 0x01	; 1
    7414:	8b bf       	out	0x3b, r24	; 59

00007416 <.Loc.85>:
    GICR = (1 << IVSEL); /* move interrupts to boot flash section */
    7416:	82 e0       	ldi	r24, 0x02	; 2
    7418:	8b bf       	out	0x3b, r24	; 59

0000741a <.LBB77>:
    asm volatile (
    741a:	e0 e0       	ldi	r30, 0x00	; 0
    741c:	f1 e7       	ldi	r31, 0x71	; 113

0000741e <_mywait_sleeploop227>:
    741e:	a8 95       	wdr
    7420:	31 97       	sbiw	r30, 0x01	; 1
    7422:	80 40       	sbci	r24, 0x00	; 0
    7424:	e1 f7       	brne	.-8      	; 0x741e <_mywait_sleeploop227>

00007426 <.LBB79>:
#	if (BOOTLOADER_ALWAYSENTERPROGRAMMODE)
#		define bootLoaderCondition()	(true)
#	else
static inline bool bootLoaderCondition(void)
{
  if (__BOOTLOADERENTRY_FROMSOFTWARE__bootup_MCUCSR & (~(_BV(WDRF)))) {
    7426:	80 91 9b 00 	lds	r24, 0x009B	; 0x80009b <__BOOTLOADERENTRY_FROMSOFTWARE__bootup_MCUCSR>
    742a:	87 7f       	andi	r24, 0xF7	; 247

0000742c <.Loc.95>:
    742c:	21 f4       	brne	.+8      	; 0x7436 <.L18>

0000742e <.Loc.96>:
  } else {
    if (__BOOTLOADERENTRY_FROMSOFTWARE__bootup_RAMEND_doesmatch == (__BOOTLOADERENTRY_FROMSOFTWARE__EXPECTEDADDRESS & 0xff)) {
    742e:	80 91 9c 00 	lds	r24, 0x009C	; 0x80009c <__BOOTLOADERENTRY_FROMSOFTWARE__bootup_RAMEND_doesmatch>

00007432 <.Loc.98>:
    7432:	88 23       	and	r24, r24
    7434:	69 f0       	breq	.+26     	; 0x7450 <.L19>

00007436 <.L18>:
#endif
#if (HAVE_BOOTLOADER_ADDITIONALMSDEVICEWAIT>0)
    _mydelay_ms(HAVE_BOOTLOADER_ADDITIONALMSDEVICEWAIT);
#endif
    if(bootLoaderCondition()){
    7436:	84 9b       	sbis	0x10, 4	; 16
    7438:	0b c0       	rjmp	.+22     	; 0x7450 <.L19>

0000743a <.L72>:
    cli();
    743a:	f8 94       	cli

0000743c <.Loc.105>:
    usbDeviceDisconnect();
    743c:	8b 9a       	sbi	0x11, 3	; 17

0000743e <.LBB83>:
    PIN_PORT(JUMPER_PORT) = 0;		/* undo bootLoaderInit() changes */
    743e:	12 ba       	out	0x12, r1	; 18

00007440 <.LBE83>:
    USB_INTR_ENABLE = 0;
    7440:	1b be       	out	0x3b, r1	; 59

00007442 <.Loc.112>:
    USB_INTR_CFG = 0;       /* also reset config bits */
    7442:	15 be       	out	0x35, r1	; 53

00007444 <.Loc.114>:
    GICR = (1 << IVCE);     /* enable change of interrupt vectors */
    7444:	81 e0       	ldi	r24, 0x01	; 1
    7446:	8b bf       	out	0x3b, r24	; 59

00007448 <.Loc.116>:
    GICR = (0 << IVSEL);    /* move interrupts to application flash section */
    7448:	1b be       	out	0x3b, r1	; 59

0000744a <.Loc.118>:
    nullVector();
    744a:	f0 e0       	ldi	r31, 0x00	; 0
    744c:	e0 e0       	ldi	r30, 0x00	; 0
    744e:	09 95       	icall

00007450 <.L19>:
#		if ((defined(CONFIG_HAVE__BOOTLOADER_ABORTTIMEOUTONACT)) && (!(BOOTLOADER_IGNOREPROGBUTTON)) && (BOOTLOADER_LOOPCYCLES_TIMEOUT))
      if (bootLoaderConditionSimple()) {
	stayinloader = stayinloader_initialValue - 0x02;
      } else
#		endif
	      stayinloader = stayinloader_initialValue;
    7450:	8e ef       	ldi	r24, 0xFE	; 254
    7452:	80 93 6f 00 	sts	0x006F, r24	; 0x80006f <stayinloader>

00007456 <.Loc.121>:
	__original_WDTCR=WDTCR;
	if (__original_WDTCR & _BV(WDE)) {
	  wdt_enable(WDTO_2S);
	}
#else
	MCUCSR = 0;       /* clear all reset flags for next time */
    7456:	14 be       	out	0x34, r1	; 52

00007458 <.LBB85>:
void wdt_disable (void)
{
	if (_SFR_IO_REG_P (_WD_CONTROL_REG))
	{
        uint8_t register temp_reg;
		__asm__ __volatile__ (
    7458:	0f b6       	in	r0, 0x3f	; 63
    745a:	f8 94       	cli
    745c:	a8 95       	wdr
    745e:	81 b5       	in	r24, 0x21	; 33
    7460:	88 61       	ori	r24, 0x18	; 24
    7462:	81 bd       	out	0x21, r24	; 33
    7464:	11 bc       	out	0x21, r1	; 33
    7466:	0f be       	out	0x3f, r0	; 63

00007468 <.LBB88>:
/* ------------------------------------------------------------------------- */

USB_PUBLIC void usbInit(void)
{
#if USB_INTR_CFG_SET != 0
    USB_INTR_CFG |= USB_INTR_CFG_SET;
    7468:	85 b7       	in	r24, 0x35	; 53
    746a:	82 60       	ori	r24, 0x02	; 2
    746c:	85 bf       	out	0x35, r24	; 53

0000746e <.Loc.134>:
#endif
#if USB_INTR_CFG_CLR != 0
    USB_INTR_CFG &= ~(USB_INTR_CFG_CLR);
#endif
    USB_INTR_ENABLE |= (1 << USB_INTR_ENABLE_BIT);
    746e:	8b b7       	in	r24, 0x3b	; 59
    7470:	80 64       	ori	r24, 0x40	; 64
    7472:	8b bf       	out	0x3b, r24	; 59

00007474 <.LBB95>:
    usbDeviceDisconnect();  /* do this while interrupts are disabled */
    7474:	8b 9a       	sbi	0x11, 3	; 17

00007476 <.LBB92>:
    asm volatile (
    7476:	8c e0       	ldi	r24, 0x0C	; 12
    7478:	e0 e0       	ldi	r30, 0x00	; 0
    747a:	f5 e3       	ldi	r31, 0x35	; 53

0000747c <_mywait_sleeploop350>:
    747c:	a8 95       	wdr
    747e:	31 97       	sbiw	r30, 0x01	; 1
    7480:	80 40       	sbci	r24, 0x00	; 0
    7482:	e1 f7       	brne	.-8      	; 0x747c <_mywait_sleeploop350>

00007484 <.LBE92>:
    usbDeviceConnect();
    7484:	8b 98       	cbi	0x11, 3	; 17

00007486 <.Loc.144>:
    sei();
    7486:	78 94       	sei

00007488 <.L71>:
    len = usbRxLen - 3;
    7488:	10 91 81 00 	lds	r17, 0x0081	; 0x800081 <usbRxLen>
    748c:	13 50       	subi	r17, 0x03	; 3

0000748e <.LVL27>:
    if(len >= 0){
    748e:	17 fd       	sbrc	r17, 7
    7490:	5a c0       	rjmp	.+180    	; 0x7546 <.L20>

00007492 <.Loc.154>:
        usbProcessRx(usbRxBuf + USB_BUFSIZE + 1 - usbInputBufOffset, len);
    7492:	80 91 7e 00 	lds	r24, 0x007E	; 0x80007e <usbInputBufOffset>
    7496:	cc e0       	ldi	r28, 0x0C	; 12
    7498:	d0 e0       	ldi	r29, 0x00	; 0
    749a:	c8 1b       	sub	r28, r24
    749c:	d1 09       	sbc	r29, r1

0000749e <.Loc.156>:
    749e:	cb 57       	subi	r28, 0x7B	; 123
    74a0:	df 4f       	sbci	r29, 0xFF	; 255

000074a2 <.LBB98>:
    if(usbRxToken == (uchar)USBPID_SETUP){
    74a2:	80 91 7d 00 	lds	r24, 0x007D	; 0x80007d <usbRxToken>
    74a6:	8d 32       	cpi	r24, 0x2D	; 45
    74a8:	09 f0       	breq	.+2      	; 0x74ac <.LBB100>

000074aa <L0^A>:
    74aa:	0b c1       	rjmp	.+534    	; 0x76c2 <.L21>

000074ac <.LBB100>:
        if(len != 8)    /* Setup size must be always 8 bytes. Ignore otherwise. */
    74ac:	18 30       	cpi	r17, 0x08	; 8
    74ae:	09 f0       	breq	.+2      	; 0x74b2 <.Loc.164>

000074b0 <L0^A>:
    74b0:	48 c0       	rjmp	.+144    	; 0x7542 <.L23>

000074b2 <.Loc.164>:
        usbTxBuf[0] = USBPID_DATA0;         /* initialize data toggling */
    74b2:	83 ec       	ldi	r24, 0xC3	; 195
    74b4:	80 93 71 00 	sts	0x0071, r24	; 0x800071 <usbTxBuf>

000074b8 <.Loc.167>:
        usbTxLen = USBPID_NAK;              /* abort pending transmit */
    74b8:	8a e5       	ldi	r24, 0x5A	; 90
    74ba:	80 93 61 00 	sts	0x0061, r24	; 0x800061 <usbTxLen>

000074be <.Loc.169>:
        usbMsgFlags = 0;
    74be:	10 92 70 00 	sts	0x0070, r1	; 0x800070 <usbMsgFlags>

000074c2 <.Loc.171>:
        uchar type = rq->bmRequestType & USBRQ_TYPE_MASK;
    74c2:	38 81       	ld	r19, Y

000074c4 <.Loc.173>:
    74c4:	83 2f       	mov	r24, r19
    74c6:	80 76       	andi	r24, 0x60	; 96

000074c8 <.LVL29>:
        if(type != USBRQ_TYPE_STANDARD){    /* standard requests are handled by driver */
    74c8:	99 81       	ldd	r25, Y+1	; 0x01

000074ca <.Loc.175>:
    74ca:	88 23       	and	r24, r24
    74cc:	09 f4       	brne	.+2      	; 0x74d0 <.LBB101>

000074ce <L0^A>:
    74ce:	9b c0       	rjmp	.+310    	; 0x7606 <.L24>

000074d0 <.LBB101>:
    usbMsgPtr = (usbMsgPtr_t)replyBuffer;
    74d0:	46 e6       	ldi	r20, 0x66	; 102
    74d2:	50 e0       	ldi	r21, 0x00	; 0
    74d4:	50 93 80 00 	sts	0x0080, r21	; 0x800080 <usbMsgPtr+0x1>
    74d8:	40 93 7f 00 	sts	0x007F, r20	; 0x80007f <usbMsgPtr>

000074dc <.Loc.183>:
    if(rq->bRequest == USBASP_FUNC_TRANSMIT){   /* emulate parts of ISP protocol */
    74dc:	93 30       	cpi	r25, 0x03	; 3
    74de:	69 f4       	brne	.+26     	; 0x74fa <.L25>

000074e0 <.Loc.185>:
        replyBuffer[3] = usbFunctionSetup_USBASP_FUNC_TRANSMIT(rq);
    74e0:	ce 01       	movw	r24, r28

000074e2 <.LVL31>:
    74e2:	45 df       	rcall	.-374    	; 0x736e <usbFunctionSetup_USBASP_FUNC_TRANSMIT>

000074e4 <.LVL32>:
    74e4:	80 93 69 00 	sts	0x0069, r24	; 0x800069 <replyBuffer.2297+0x3>

000074e8 <.LBB108>:
        len = (usbMsgLen_t)4;
    74e8:	84 e0       	ldi	r24, 0x04	; 4

000074ea <.L26>:
            if(!rq->wLength.bytes[1] && replyLen > rq->wLength.bytes[0])    /* limit length to max */
    74ea:	9f 81       	ldd	r25, Y+7	; 0x07
    74ec:	91 11       	cpse	r25, r1
    74ee:	27 c0       	rjmp	.+78     	; 0x753e <.L42>
    74f0:	9e 81       	ldd	r25, Y+6	; 0x06
    74f2:	98 17       	cp	r25, r24
    74f4:	20 f5       	brcc	.+72     	; 0x753e <.L42>
    74f6:	89 2f       	mov	r24, r25
    74f8:	22 c0       	rjmp	.+68     	; 0x753e <.L42>

000074fa <.L25>:
    }else if((rq->bRequest == USBASP_FUNC_ENABLEPROG) || (rq->bRequest == USBASP_FUNC_SETISPSCK)){
    74fa:	95 30       	cpi	r25, 0x05	; 5
    74fc:	09 f4       	brne	.+2      	; 0x7500 <.Loc.199>

000074fe <L0^A>:
    74fe:	df c0       	rjmp	.+446    	; 0x76be <.L74>

00007500 <.Loc.199>:
    7500:	9a 30       	cpi	r25, 0x0A	; 10
    7502:	09 f4       	brne	.+2      	; 0x7506 <.Loc.200>

00007504 <L0^A>:
    7504:	dc c0       	rjmp	.+440    	; 0x76be <.L74>

00007506 <.Loc.200>:
    }else if(rq->bRequest >= USBASP_FUNC_READFLASH && rq->bRequest <= USBASP_FUNC_SETLONGADDRESS){
    7506:	8c ef       	ldi	r24, 0xFC	; 252

00007508 <.LVL36>:
    7508:	89 0f       	add	r24, r25

0000750a <.Loc.203>:
    750a:	86 30       	cpi	r24, 0x06	; 6
    750c:	08 f0       	brcs	.+2      	; 0x7510 <.Loc.204>

0000750e <L0^A>:
    750e:	70 c0       	rjmp	.+224    	; 0x75f0 <.L27>

00007510 <.Loc.204>:
        currentAddress.w[0] = rq->wValue.word;
    7510:	4a 81       	ldd	r20, Y+2	; 0x02
    7512:	5b 81       	ldd	r21, Y+3	; 0x03
    7514:	50 93 6e 00 	sts	0x006E, r21	; 0x80006e <currentAddress+0x1>
    7518:	40 93 6d 00 	sts	0x006D, r20	; 0x80006d <currentAddress>

0000751c <.Loc.206>:
        if(rq->bRequest == USBASP_FUNC_SETLONGADDRESS){
    751c:	99 30       	cpi	r25, 0x09	; 9
    751e:	09 f4       	brne	.+2      	; 0x7522 <.Loc.208>

00007520 <L0^A>:
    7520:	6e c0       	rjmp	.+220    	; 0x75fe <.L75>

00007522 <.Loc.208>:
            bytesRemaining = rq->wLength.bytes[0];
    7522:	8e 81       	ldd	r24, Y+6	; 0x06

00007524 <.Loc.210>:
    7524:	80 93 6c 00 	sts	0x006C, r24	; 0x80006c <bytesRemaining>

00007528 <.Loc.211>:
            isLastPage = rq->wIndex.bytes[1] & 0x02;
    7528:	2d 81       	ldd	r18, Y+5	; 0x05
    752a:	22 70       	andi	r18, 0x02	; 2

0000752c <.Loc.213>:
    752c:	20 93 6b 00 	sts	0x006B, r18	; 0x80006b <isLastPage>

00007530 <.Loc.214>:
            currentRequest = rq->bRequest;
    7530:	90 93 6a 00 	sts	0x006A, r25	; 0x80006a <currentRequest>

00007534 <.LBE109>:
            if((rq->bmRequestType & USBRQ_DIR_MASK) != USBRQ_DIR_HOST_TO_DEVICE){
    7534:	37 ff       	sbrs	r19, 7
    7536:	8f ef       	ldi	r24, 0xFF	; 255

00007538 <.LVL38>:
            usbMsgFlags = USB_FLG_USE_USER_RW;
    7538:	90 e8       	ldi	r25, 0x80	; 128
    753a:	90 93 70 00 	sts	0x0070, r25	; 0x800070 <usbMsgFlags>

0000753e <.L42>:
        usbMsgLen = replyLen;
    753e:	80 93 60 00 	sts	0x0060, r24	; 0x800060 <usbMsgLen>

00007542 <.L23>:
        usbRxLen = 0;       /* mark rx buffer as available */
    7542:	10 92 81 00 	sts	0x0081, r1	; 0x800081 <usbRxLen>

00007546 <.L20>:
    if(usbTxLen & 0x10){    /* transmit system idle */
    7546:	80 91 61 00 	lds	r24, 0x0061	; 0x800061 <usbTxLen>

0000754a <.Loc.230>:
    754a:	84 ff       	sbrs	r24, 4
    754c:	36 c0       	rjmp	.+108    	; 0x75ba <.L54>

0000754e <.Loc.231>:
        if(usbMsgLen != USB_NO_MSG){    /* transmit data pending? */
    754e:	c0 91 60 00 	lds	r28, 0x0060	; 0x800060 <usbMsgLen>

00007552 <.Loc.233>:
    7552:	cf 3f       	cpi	r28, 0xFF	; 255
    7554:	91 f1       	breq	.+100    	; 0x75ba <.L54>

00007556 <.LBB140>:
    if(wantLen > 8)
    7556:	8c 2f       	mov	r24, r28
    7558:	c9 30       	cpi	r28, 0x09	; 9
    755a:	08 f0       	brcs	.+2      	; 0x755e <.L55>
    755c:	88 e0       	ldi	r24, 0x08	; 8

0000755e <.L55>:
    usbMsgLen -= wantLen;
    755e:	9c 2f       	mov	r25, r28
    7560:	98 1b       	sub	r25, r24
    7562:	90 93 60 00 	sts	0x0060, r25	; 0x800060 <usbMsgLen>

00007566 <.Loc.242>:
    usbTxBuf[0] ^= USBPID_DATA0 ^ USBPID_DATA1; /* DATA toggling */
    7566:	90 91 71 00 	lds	r25, 0x0071	; 0x800071 <usbTxBuf>
    756a:	28 e8       	ldi	r18, 0x88	; 136
    756c:	92 27       	eor	r25, r18
    756e:	90 93 71 00 	sts	0x0071, r25	; 0x800071 <usbTxBuf>

00007572 <.LBB142>:
    if(len > 0){    /* don't bother app with 0 sized reads */
    7572:	cc 23       	and	r28, r28
    7574:	b1 f0       	breq	.+44     	; 0x75a2 <.L56>

00007576 <.Loc.248>:
        if(usbMsgFlags & USB_FLG_USE_USER_RW){
    7576:	40 91 70 00 	lds	r20, 0x0070	; 0x800070 <usbMsgFlags>

0000757a <.Loc.250>:
    757a:	47 ff       	sbrs	r20, 7
    757c:	2f c1       	rjmp	.+606    	; 0x77dc <.L57>

0000757e <.LBB144>:
    if(len > bytesRemaining)
    757e:	90 91 6c 00 	lds	r25, 0x006C	; 0x80006c <bytesRemaining>
    7582:	c8 2f       	mov	r28, r24
    7584:	98 17       	cp	r25, r24
    7586:	08 f4       	brcc	.+2      	; 0x758a <.L58>
    7588:	c9 2f       	mov	r28, r25

0000758a <.L58>:
    bytesRemaining -= len;
    758a:	9c 1b       	sub	r25, r28
    758c:	90 93 6c 00 	sts	0x006C, r25	; 0x80006c <bytesRemaining>

00007590 <.LVL46>:
        if(currentRequest >= USBASP_FUNC_READEEPROM){
    7590:	d0 90 6a 00 	lds	r13, 0x006A	; 0x80006a <currentRequest>

00007594 <.Loc.260>:
    for(i = 0; i < len; i++){
    7594:	d0 e0       	ldi	r29, 0x00	; 0

00007596 <.Loc.261>:
        if(currentRequest >= USBASP_FUNC_READEEPROM){
    7596:	82 e7       	ldi	r24, 0x72	; 114
    7598:	e8 2e       	mov	r14, r24
    759a:	80 e0       	ldi	r24, 0x00	; 0
    759c:	f8 2e       	mov	r15, r24

0000759e <.L59>:
    for(i = 0; i < len; i++){
    759e:	dc 13       	cpse	r29, r28
    75a0:	04 c1       	rjmp	.+520    	; 0x77aa <.L62>

000075a2 <.L56>:
        usbCrc16Append(&usbTxBuf[1], len);
    75a2:	6c 2f       	mov	r22, r28
    75a4:	82 e7       	ldi	r24, 0x72	; 114
    75a6:	90 e0       	ldi	r25, 0x00	; 0
    75a8:	ca dd       	rcall	.-1132   	; 0x713e <usbCrc16Append>

000075aa <.LVL49>:
        len += 4;           /* length including sync byte */
    75aa:	cc 5f       	subi	r28, 0xFC	; 252

000075ac <.Loc.268>:
        if(len < 12)        /* a partial package identifies end of message */
    75ac:	cc 30       	cpi	r28, 0x0C	; 12
    75ae:	19 f0       	breq	.+6      	; 0x75b6 <.L66>

000075b0 <.Loc.270>:
            usbMsgLen = USB_NO_MSG;
    75b0:	8f ef       	ldi	r24, 0xFF	; 255
    75b2:	80 93 60 00 	sts	0x0060, r24	; 0x800060 <usbMsgLen>

000075b6 <.L66>:
    usbTxLen = len;
    75b6:	c0 93 61 00 	sts	0x0061, r28	; 0x800061 <usbTxLen>

000075ba <.L54>:
            usbMsgPtr = r;
    75ba:	84 e1       	ldi	r24, 0x14	; 20

000075bc <.L68>:
        uchar usbLineStatus = USBIN & USBMASK;
    75bc:	90 b3       	in	r25, 0x10	; 16

000075be <.LVL53>:
    75be:	9c 70       	andi	r25, 0x0C	; 12

000075c0 <.LVL54>:
        if(usbLineStatus != 0)  /* SE0 has ended */
    75c0:	31 f4       	brne	.+12     	; 0x75ce <.L67>

000075c2 <.LBE161>:
    for(i = 20; i > 0; i--){
    75c2:	81 50       	subi	r24, 0x01	; 1

000075c4 <.LVL56>:
    75c4:	d9 f7       	brne	.-10     	; 0x75bc <.L68>

000075c6 <.Loc.288>:
    usbNewDeviceAddr = 0;
    75c6:	10 92 82 00 	sts	0x0082, r1	; 0x800082 <usbNewDeviceAddr>

000075ca <.Loc.290>:
    usbDeviceAddr = 0;
    75ca:	10 92 7c 00 	sts	0x007C, r1	; 0x80007c <usbDeviceAddr>

000075ce <.L67>:
  : [sil]        "+d" (stayinloader)
  : [pin]         "I" (_SFR_IO_ADDR(PIN_PIN(JUMPER_PORT))),
    [bit]         "I" (PIN(JUMPER_PORT, JUMPER_BIT))
);
#else
	if (stayinloader >= 0x10) {
    75ce:	80 91 6f 00 	lds	r24, 0x006F	; 0x80006f <stayinloader>

000075d2 <.Loc.300>:
    75d2:	80 31       	cpi	r24, 0x10	; 16
    75d4:	08 f4       	brcc	.+2      	; 0x75d8 <.Loc.301>

000075d6 <L0^A>:
    75d6:	1e c1       	rjmp	.+572    	; 0x7814 <.L69>

000075d8 <.Loc.301>:
	  if (!bootLoaderConditionSimple()) {
    75d8:	84 9b       	sbis	0x10, 4	; 16
    75da:	05 c0       	rjmp	.+10     	; 0x75e6 <.L70>

000075dc <.Loc.303>:
	    stayinloader-=0x10;
    75dc:	80 91 6f 00 	lds	r24, 0x006F	; 0x80006f <stayinloader>
    75e0:	80 51       	subi	r24, 0x10	; 16

000075e2 <.L110>:
	  } 
	} else {
	  if (bootLoaderConditionSimple()) {
	    if (stayinloader > 1) stayinloader-=2;
    75e2:	80 93 6f 00 	sts	0x006F, r24	; 0x80006f <stayinloader>

000075e6 <.L70>:
#endif
#endif
#endif

#if BOOTLOADER_CAN_EXIT
        }while (stayinloader);	/* main event loop, if BOOTLOADER_CAN_EXIT*/
    75e6:	80 91 6f 00 	lds	r24, 0x006F	; 0x80006f <stayinloader>

000075ea <.Loc.308>:
    75ea:	81 11       	cpse	r24, r1
    75ec:	4d cf       	rjmp	.-358    	; 0x7488 <.L71>
    75ee:	25 cf       	rjmp	.-438    	; 0x743a <.L72>

000075f0 <.L27>:
      stayinloader	   &= (0xfe);
    75f0:	80 91 6f 00 	lds	r24, 0x006F	; 0x80006f <stayinloader>

000075f4 <.Loc.311>:
    }else if(rq->bRequest == USBASP_FUNC_DISCONNECT){
    75f4:	92 30       	cpi	r25, 0x02	; 2
    75f6:	29 f4       	brne	.+10     	; 0x7602 <.L30>

000075f8 <.Loc.312>:
      stayinloader	   &= (0xfe);
    75f8:	8e 7f       	andi	r24, 0xFE	; 254

000075fa <.L111>:
	stayinloader	   |= (0x01);
    75fa:	80 93 6f 00 	sts	0x006F, r24	; 0x80006f <stayinloader>

000075fe <.L75>:
usbMsgLen_t     len = 0;
    75fe:	80 e0       	ldi	r24, 0x00	; 0
    7600:	74 cf       	rjmp	.-280    	; 0x74ea <.L26>

00007602 <.L30>:
	stayinloader	   |= (0x01);
    7602:	81 60       	ori	r24, 0x01	; 1
    7604:	fa cf       	rjmp	.-12     	; 0x75fa <.L111>

00007606 <.L24>:
uchar   value = rq->wValue.bytes[0];
    7606:	2a 81       	ldd	r18, Y+2	; 0x02

00007608 <.LVL61>:
    dataPtr[0] = 0; /* default reply common to USBRQ_GET_STATUS and USBRQ_GET_INTERFACE */
    7608:	10 92 7a 00 	sts	0x007A, r1	; 0x80007a <usbTxBuf+0x9>

0000760c <.LBB114>:
    SWITCH_CASE(USBRQ_GET_STATUS)           /* 0 */
    760c:	91 11       	cpse	r25, r1
    760e:	0a c0       	rjmp	.+20     	; 0x7624 <.L31>

00007610 <.LBB115>:
        dataPtr[1] = 0;
    7610:	10 92 7b 00 	sts	0x007B, r1	; 0x80007b <usbTxBuf+0xa>

00007614 <.LBE114>:
uchar   *dataPtr = usbTxBuf + 9;    /* there are 2 bytes free space at the end of the buffer */
    7614:	2a e7       	ldi	r18, 0x7A	; 122
    7616:	30 e0       	ldi	r19, 0x00	; 0

00007618 <.LBB116>:
        len = 2;
    7618:	82 e0       	ldi	r24, 0x02	; 2

0000761a <.L32>:
    usbMsgPtr = (usbMsgPtr_t)dataPtr;
    761a:	30 93 80 00 	sts	0x0080, r19	; 0x800080 <usbMsgPtr+0x1>
    761e:	20 93 7f 00 	sts	0x007F, r18	; 0x80007f <usbMsgPtr>
    7622:	63 cf       	rjmp	.-314    	; 0x74ea <.L26>

00007624 <.L31>:
    SWITCH_CASE(USBRQ_SET_ADDRESS)          /* 5 */
    7624:	95 30       	cpi	r25, 0x05	; 5
    7626:	29 f4       	brne	.+10     	; 0x7632 <.L33>

00007628 <.Loc.345>:
        usbNewDeviceAddr = value;
    7628:	20 93 82 00 	sts	0x0082, r18	; 0x800082 <usbNewDeviceAddr>

0000762c <.L41>:
uchar   *dataPtr = usbTxBuf + 9;    /* there are 2 bytes free space at the end of the buffer */
    762c:	2a e7       	ldi	r18, 0x7A	; 122
    762e:	30 e0       	ldi	r19, 0x00	; 0

00007630 <.LVL69>:
    7630:	f4 cf       	rjmp	.-24     	; 0x761a <.L32>

00007632 <.L33>:
    SWITCH_CASE(USBRQ_GET_DESCRIPTOR)       /* 6 */
    7632:	96 30       	cpi	r25, 0x06	; 6
    7634:	99 f5       	brne	.+102    	; 0x769c <.L34>

00007636 <.LBB117>:
    SWITCH_START(rq->wValue.bytes[1])
    7636:	9b 81       	ldd	r25, Y+3	; 0x03

00007638 <.LVL72>:
    SWITCH_CASE(USBDESCR_DEVICE)    /* 1 */
    7638:	91 30       	cpi	r25, 0x01	; 1
    763a:	59 f4       	brne	.+22     	; 0x7652 <.L35>

0000763c <.LVL73>:
        GET_DESCRIPTOR(USB_CFG_DESCR_PROPS_DEVICE, usbDescriptorDevice)
    763c:	84 e8       	ldi	r24, 0x84	; 132
    763e:	90 e7       	ldi	r25, 0x70	; 112

00007640 <.L108>:
        GET_DESCRIPTOR(USB_CFG_DESCR_PROPS_CONFIGURATION, usbDescriptorConfiguration)
    7640:	90 93 80 00 	sts	0x0080, r25	; 0x800080 <usbMsgPtr+0x1>
    7644:	80 93 7f 00 	sts	0x007F, r24	; 0x80007f <usbMsgPtr>
    7648:	82 e1       	ldi	r24, 0x12	; 18

0000764a <.L36>:
    usbMsgFlags = flags;
    764a:	90 e4       	ldi	r25, 0x40	; 64

0000764c <.LVL76>:
    764c:	90 93 70 00 	sts	0x0070, r25	; 0x800070 <usbMsgFlags>

00007650 <.LBE117>:
        goto skipMsgPtrAssignment;
    7650:	4c cf       	rjmp	.-360    	; 0x74ea <.L26>

00007652 <.L35>:
    SWITCH_CASE(USBDESCR_CONFIG)    /* 2 */
    7652:	92 30       	cpi	r25, 0x02	; 2
    7654:	19 f4       	brne	.+6      	; 0x765c <.L37>

00007656 <.LVL79>:
        GET_DESCRIPTOR(USB_CFG_DESCR_PROPS_CONFIGURATION, usbDescriptorConfiguration)
    7656:	82 e7       	ldi	r24, 0x72	; 114
    7658:	90 e7       	ldi	r25, 0x70	; 112

0000765a <.LVL80>:
    765a:	f2 cf       	rjmp	.-28     	; 0x7640 <.L108>

0000765c <.L37>:
    SWITCH_CASE(USBDESCR_STRING)    /* 3 */
    765c:	93 30       	cpi	r25, 0x03	; 3
    765e:	a9 f7       	brne	.-22     	; 0x764a <.L36>

00007660 <.LBB120>:
        SWITCH_CASE(0)
    7660:	21 11       	cpse	r18, r1
    7662:	08 c0       	rjmp	.+16     	; 0x7674 <.L38>

00007664 <.LVL83>:
            GET_DESCRIPTOR(USB_CFG_DESCR_PROPS_STRING_0, usbDescriptorString0)
    7664:	80 ec       	ldi	r24, 0xC0	; 192
    7666:	90 e7       	ldi	r25, 0x70	; 112

00007668 <.LVL84>:
    7668:	90 93 80 00 	sts	0x0080, r25	; 0x800080 <usbMsgPtr+0x1>
    766c:	80 93 7f 00 	sts	0x007F, r24	; 0x80007f <usbMsgPtr>
    7670:	84 e0       	ldi	r24, 0x04	; 4
    7672:	eb cf       	rjmp	.-42     	; 0x764a <.L36>

00007674 <.L38>:
        SWITCH_CASE(1)
    7674:	21 30       	cpi	r18, 0x01	; 1
    7676:	41 f4       	brne	.+16     	; 0x7688 <.L39>

00007678 <.LVL86>:
            GET_DESCRIPTOR(USB_CFG_DESCR_PROPS_STRING_VENDOR, usbDescriptorStringVendor)
    7678:	84 ea       	ldi	r24, 0xA4	; 164
    767a:	90 e7       	ldi	r25, 0x70	; 112

0000767c <.LVL87>:
    767c:	90 93 80 00 	sts	0x0080, r25	; 0x800080 <usbMsgPtr+0x1>
    7680:	80 93 7f 00 	sts	0x007F, r24	; 0x80007f <usbMsgPtr>
    7684:	8c e1       	ldi	r24, 0x1C	; 28
    7686:	e1 cf       	rjmp	.-62     	; 0x764a <.L36>

00007688 <.L39>:
        SWITCH_CASE(2)
    7688:	22 30       	cpi	r18, 0x02	; 2
    768a:	f9 f6       	brne	.-66     	; 0x764a <.L36>

0000768c <.LVL89>:
            GET_DESCRIPTOR(USB_CFG_DESCR_PROPS_STRING_PRODUCT, usbDescriptorStringDevice)
    768c:	86 e9       	ldi	r24, 0x96	; 150
    768e:	90 e7       	ldi	r25, 0x70	; 112

00007690 <.LVL90>:
    7690:	90 93 80 00 	sts	0x0080, r25	; 0x800080 <usbMsgPtr+0x1>
    7694:	80 93 7f 00 	sts	0x007F, r24	; 0x80007f <usbMsgPtr>
    7698:	8e e0       	ldi	r24, 0x0E	; 14
    769a:	d7 cf       	rjmp	.-82     	; 0x764a <.L36>

0000769c <.L34>:
    SWITCH_CASE(USBRQ_GET_CONFIGURATION)    /* 8 */
    769c:	98 30       	cpi	r25, 0x08	; 8
    769e:	59 f0       	breq	.+22     	; 0x76b6 <.L76>

000076a0 <.Loc.405>:
    SWITCH_CASE(USBRQ_SET_CONFIGURATION)    /* 9 */
    76a0:	99 30       	cpi	r25, 0x09	; 9
    76a2:	19 f4       	brne	.+6      	; 0x76aa <.L40>

000076a4 <.Loc.406>:
        usbConfiguration = value;
    76a4:	20 93 84 00 	sts	0x0084, r18	; 0x800084 <usbConfiguration>

000076a8 <.LBE112>:
}
    76a8:	c1 cf       	rjmp	.-126    	; 0x762c <.L41>

000076aa <.L40>:
    SWITCH_CASE(USBRQ_GET_INTERFACE)        /* 10 */
    76aa:	81 e0       	ldi	r24, 0x01	; 1

000076ac <.LVL92>:
    76ac:	9a 30       	cpi	r25, 0x0A	; 10
    76ae:	09 f4       	brne	.+2      	; 0x76b2 <L0^A+0x2>

000076b0 <L0^A>:
    76b0:	bd cf       	rjmp	.-134    	; 0x762c <.L41>
    76b2:	80 e0       	ldi	r24, 0x00	; 0
    76b4:	bb cf       	rjmp	.-138    	; 0x762c <.L41>

000076b6 <.L76>:
        dataPtr = &usbConfiguration;  /* send current configuration value */
    76b6:	24 e8       	ldi	r18, 0x84	; 132
    76b8:	30 e0       	ldi	r19, 0x00	; 0

000076ba <.LVL94>:
        len = 1;
    76ba:	81 e0       	ldi	r24, 0x01	; 1

000076bc <.LVL95>:
    76bc:	ae cf       	rjmp	.-164    	; 0x761a <.L32>

000076be <.L74>:
        len = (usbMsgLen_t)1;
    76be:	81 e0       	ldi	r24, 0x01	; 1

000076c0 <.LVL97>:
    76c0:	14 cf       	rjmp	.-472    	; 0x74ea <.L26>

000076c2 <.L21>:
        if(usbMsgFlags & USB_FLG_USE_USER_RW){
    76c2:	80 91 70 00 	lds	r24, 0x0070	; 0x800070 <usbMsgFlags>
    76c6:	87 ff       	sbrs	r24, 7
    76c8:	3c cf       	rjmp	.-392    	; 0x7542 <.L23>

000076ca <.LBB133>:
    if(len > bytesRemaining)
    76ca:	00 91 6c 00 	lds	r16, 0x006C	; 0x80006c <bytesRemaining>
    76ce:	01 17       	cp	r16, r17
    76d0:	08 f4       	brcc	.+2      	; 0x76d4 <.L45>
    76d2:	10 2f       	mov	r17, r16

000076d4 <.L45>:
    bytesRemaining -= len;
    76d4:	01 1b       	sub	r16, r17
    76d6:	00 93 6c 00 	sts	0x006C, r16	; 0x80006c <bytesRemaining>

000076da <.LVL101>:
    for(i = 0; i < len;) {
    76da:	f1 2c       	mov	r15, r1

000076dc <.L46>:
    76dc:	f1 16       	cp	r15, r17
    76de:	28 f0       	brcs	.+10     	; 0x76ea <.L53>

000076e0 <.LBE134>:
            }else if(rval != 0){    /* This was the final package */
    76e0:	01 11       	cpse	r16, r1
    76e2:	2f cf       	rjmp	.-418    	; 0x7542 <.L23>

000076e4 <.L49>:
                usbMsgLen = 0;  /* answer with a zero-sized data packet */
    76e4:	10 92 60 00 	sts	0x0060, r1	; 0x800060 <usbMsgLen>
    76e8:	2c cf       	rjmp	.-424    	; 0x7542 <.L23>

000076ea <.L53>:
      if(currentRequest >= USBASP_FUNC_READEEPROM){
    76ea:	80 91 6d 00 	lds	r24, 0x006D	; 0x80006d <currentAddress>
    76ee:	90 91 6e 00 	lds	r25, 0x006E	; 0x80006e <currentAddress+0x1>

000076f2 <.Loc.442>:
    76f2:	20 91 6a 00 	lds	r18, 0x006A	; 0x80006a <currentRequest>
    76f6:	27 30       	cpi	r18, 0x07	; 7
    76f8:	58 f0       	brcs	.+22     	; 0x7710 <.L47>

000076fa <.Loc.443>:
	eeprom_write_byte((void *)(currentAddress.w[0]++), *data++);
    76fa:	69 91       	ld	r22, Y+

000076fc <.LVL106>:
    76fc:	9c 01       	movw	r18, r24
    76fe:	2f 5f       	subi	r18, 0xFF	; 255
    7700:	3f 4f       	sbci	r19, 0xFF	; 255
    7702:	30 93 6e 00 	sts	0x006E, r19	; 0x80006e <currentAddress+0x1>
    7706:	20 93 6d 00 	sts	0x006D, r18	; 0x80006d <currentAddress>

0000770a <.Loc.446>:
    770a:	97 d0       	rcall	.+302    	; 0x783a <eeprom_write_byte>

0000770c <.LVL107>:
	i++;
    770c:	f3 94       	inc	r15

0000770e <.Loc.449>:
    770e:	e6 cf       	rjmp	.-52     	; 0x76dc <.L46>

00007710 <.L47>:
	if (CURRENT_ADDRESS >= (addr_t)(BOOTLOADER_PAGEADDR)) {
    7710:	81 15       	cp	r24, r1
    7712:	90 47       	sbci	r25, 0x70	; 112
    7714:	38 f7       	brcc	.-50     	; 0x76e4 <.L49>

00007716 <.Loc.452>:
	i += 2;
    7716:	f3 94       	inc	r15
    7718:	f3 94       	inc	r15

0000771a <.Loc.454>:
	cli();
    771a:	f8 94       	cli

0000771c <.Loc.456>:
	boot_page_fill(CURRENT_ADDRESS, *(short *)data);
    771c:	e0 91 6d 00 	lds	r30, 0x006D	; 0x80006d <currentAddress>
    7720:	f0 91 6e 00 	lds	r31, 0x006E	; 0x80006e <currentAddress+0x1>
    7724:	29 91       	ld	r18, Y+
    7726:	39 91       	ld	r19, Y+

00007728 <.LVL111>:
    7728:	81 e0       	ldi	r24, 0x01	; 1
    772a:	09 01       	movw	r0, r18
    772c:	80 93 57 00 	sts	0x0057, r24	; 0x800057 <__TEXT_REGION_LENGTH__+0x7e0057>
    7730:	e8 95       	spm
    7732:	11 24       	eor	r1, r1

00007734 <.Loc.458>:
	sei();
    7734:	78 94       	sei

00007736 <.Loc.459>:
	CURRENT_ADDRESS += 2;
    7736:	80 91 6d 00 	lds	r24, 0x006D	; 0x80006d <currentAddress>
    773a:	90 91 6e 00 	lds	r25, 0x006E	; 0x80006e <currentAddress+0x1>
    773e:	02 96       	adiw	r24, 0x02	; 2
    7740:	90 93 6e 00 	sts	0x006E, r25	; 0x80006e <currentAddress+0x1>
    7744:	80 93 6d 00 	sts	0x006D, r24	; 0x80006d <currentAddress>

00007748 <.LVL112>:
	if((currentAddress.w[0] & (SPM_PAGESIZE - 1)) == 0 || (isLast && i >= len && isLastPage)){
    7748:	8f 77       	andi	r24, 0x7F	; 127
    774a:	99 27       	eor	r25, r25

0000774c <.Loc.464>:
    774c:	89 2b       	or	r24, r25
    774e:	51 f0       	breq	.+20     	; 0x7764 <.L50>

00007750 <.Loc.465>:
    7750:	01 11       	cpse	r16, r1
    7752:	c4 cf       	rjmp	.-120    	; 0x76dc <.L46>

00007754 <.Loc.466>:
    7754:	f1 16       	cp	r15, r17
    7756:	08 f4       	brcc	.+2      	; 0x775a <.Loc.467>

00007758 <L0^A>:
    7758:	c1 cf       	rjmp	.-126    	; 0x76dc <.L46>

0000775a <.Loc.467>:
    775a:	80 91 6b 00 	lds	r24, 0x006B	; 0x80006b <isLastPage>
    775e:	88 23       	and	r24, r24
    7760:	09 f4       	brne	.+2      	; 0x7764 <.L50>

00007762 <L0^A>:
    7762:	bc cf       	rjmp	.-136    	; 0x76dc <.L46>

00007764 <.L50>:
	    cli();
    7764:	f8 94       	cli

00007766 <.Loc.470>:
	    boot_page_erase(CURRENT_ADDRESS - 2);   /* erase page */
    7766:	e0 91 6d 00 	lds	r30, 0x006D	; 0x80006d <currentAddress>
    776a:	f0 91 6e 00 	lds	r31, 0x006E	; 0x80006e <currentAddress+0x1>
    776e:	32 97       	sbiw	r30, 0x02	; 2
    7770:	83 e0       	ldi	r24, 0x03	; 3
    7772:	80 93 57 00 	sts	0x0057, r24	; 0x800057 <__TEXT_REGION_LENGTH__+0x7e0057>
    7776:	e8 95       	spm

00007778 <.Loc.471>:
	    sei();
    7778:	78 94       	sei

0000777a <.L51>:
	    boot_spm_busy_wait();                   /* wait until page is erased */
    777a:	07 b6       	in	r0, 0x37	; 55
    777c:	00 fc       	sbrc	r0, 0
    777e:	fd cf       	rjmp	.-6      	; 0x777a <.L51>

00007780 <.Loc.475>:
	    cli();
    7780:	f8 94       	cli

00007782 <.Loc.477>:
	    boot_page_write(CURRENT_ADDRESS - 2);
    7782:	e0 91 6d 00 	lds	r30, 0x006D	; 0x80006d <currentAddress>
    7786:	f0 91 6e 00 	lds	r31, 0x006E	; 0x80006e <currentAddress+0x1>
    778a:	32 97       	sbiw	r30, 0x02	; 2
    778c:	85 e0       	ldi	r24, 0x05	; 5
    778e:	80 93 57 00 	sts	0x0057, r24	; 0x800057 <__TEXT_REGION_LENGTH__+0x7e0057>
    7792:	e8 95       	spm

00007794 <.Loc.478>:
	    sei();
    7794:	78 94       	sei

00007796 <.L52>:
	    boot_spm_busy_wait();
    7796:	07 b6       	in	r0, 0x37	; 55
    7798:	00 fc       	sbrc	r0, 0
    779a:	fd cf       	rjmp	.-6      	; 0x7796 <.L52>

0000779c <.Loc.482>:
	    cli();
    779c:	f8 94       	cli

0000779e <.Loc.483>:
	    boot_rww_enable();
    779e:	81 e1       	ldi	r24, 0x11	; 17
    77a0:	80 93 57 00 	sts	0x0057, r24	; 0x800057 <__TEXT_REGION_LENGTH__+0x7e0057>
    77a4:	e8 95       	spm

000077a6 <.Loc.484>:
	    sei();
    77a6:	78 94       	sei
    77a8:	99 cf       	rjmp	.-206    	; 0x76dc <.L46>

000077aa <.L62>:
        if(currentRequest >= USBASP_FUNC_READEEPROM){
    77aa:	00 91 6d 00 	lds	r16, 0x006D	; 0x80006d <currentAddress>
    77ae:	10 91 6e 00 	lds	r17, 0x006E	; 0x80006e <currentAddress+0x1>

000077b2 <.Loc.487>:
    77b2:	26 e0       	ldi	r18, 0x06	; 6
    77b4:	2d 15       	cp	r18, r13
    77b6:	78 f4       	brcc	.+30     	; 0x77d6 <.L60>

000077b8 <.Loc.488>:
            *data = eeprom_read_byte((void *)currentAddress.w[0]);
    77b8:	c8 01       	movw	r24, r16
    77ba:	37 d0       	rcall	.+110    	; 0x782a <eeprom_read_byte>

000077bc <.L109>:
            *data = pgm_read_byte(CURRENT_ADDRESS);
    77bc:	f7 01       	movw	r30, r14
    77be:	80 83       	st	Z, r24

000077c0 <.Loc.492>:
        data++;
    77c0:	ff ef       	ldi	r31, 0xFF	; 255
    77c2:	ef 1a       	sub	r14, r31
    77c4:	ff 0a       	sbc	r15, r31

000077c6 <.Loc.494>:
        CURRENT_ADDRESS++;
    77c6:	0f 5f       	subi	r16, 0xFF	; 255
    77c8:	1f 4f       	sbci	r17, 0xFF	; 255
    77ca:	10 93 6e 00 	sts	0x006E, r17	; 0x80006e <currentAddress+0x1>
    77ce:	00 93 6d 00 	sts	0x006D, r16	; 0x80006d <currentAddress>

000077d2 <.Loc.496>:
    for(i = 0; i < len; i++){
    77d2:	df 5f       	subi	r29, 0xFF	; 255

000077d4 <.Loc.498>:
    77d4:	e4 ce       	rjmp	.-568    	; 0x759e <.L59>

000077d6 <.L60>:
            *data = pgm_read_byte(CURRENT_ADDRESS);
    77d6:	f8 01       	movw	r30, r16
    77d8:	84 91       	lpm	r24, Z
    77da:	f0 cf       	rjmp	.-32     	; 0x77bc <.L109>

000077dc <.L57>:
            usbMsgPtr_t r = usbMsgPtr;
    77dc:	90 91 7f 00 	lds	r25, 0x007F	; 0x80007f <usbMsgPtr>
    77e0:	30 91 80 00 	lds	r19, 0x0080	; 0x800080 <usbMsgPtr+0x1>

000077e4 <.LVL119>:
            if(usbMsgFlags & USB_FLG_MSGPTR_IS_ROM){    /* ROM data */
    77e4:	28 2f       	mov	r18, r24
    77e6:	29 0f       	add	r18, r25

000077e8 <.Loc.508>:
            usbMsgPtr_t r = usbMsgPtr;
    77e8:	e9 2f       	mov	r30, r25
    77ea:	f3 2f       	mov	r31, r19

000077ec <.Loc.509>:
            if(usbMsgFlags & USB_FLG_MSGPTR_IS_ROM){    /* ROM data */
    77ec:	a2 e7       	ldi	r26, 0x72	; 114
    77ee:	b0 e0       	ldi	r27, 0x00	; 0

000077f0 <.LVL120>:
    77f0:	46 ff       	sbrs	r20, 6
    77f2:	0b c0       	rjmp	.+22     	; 0x780a <.L63>

000077f4 <.L64>:
                    uchar c = USB_READ_FLASH(r);    /* assign to char size variable to enforce byte ops */
    77f4:	94 91       	lpm	r25, Z

000077f6 <.LBE151>:
                    *data++ = c;
    77f6:	9d 93       	st	X+, r25

000077f8 <.LVL123>:
                    r++;
    77f8:	31 96       	adiw	r30, 0x01	; 1

000077fa <.LBE150>:
                }while(--i);
    77fa:	2e 13       	cpse	r18, r30
    77fc:	fb cf       	rjmp	.-10     	; 0x77f4 <.L64>

000077fe <.L65>:
            usbMsgPtr = r;
    77fe:	f0 93 80 00 	sts	0x0080, r31	; 0x800080 <usbMsgPtr+0x1>
    7802:	e0 93 7f 00 	sts	0x007F, r30	; 0x80007f <usbMsgPtr>
    7806:	c8 2f       	mov	r28, r24
    7808:	cc ce       	rjmp	.-616    	; 0x75a2 <.L56>

0000780a <.L63>:
                    *data++ = *((uchar *)r);
    780a:	91 91       	ld	r25, Z+

0000780c <.LVL127>:
    780c:	9d 93       	st	X+, r25

0000780e <.LVL128>:
                }while(--i);
    780e:	2e 13       	cpse	r18, r30
    7810:	fc cf       	rjmp	.-8      	; 0x780a <.L63>
    7812:	f5 cf       	rjmp	.-22     	; 0x77fe <.L65>

00007814 <.L69>:
	  if (bootLoaderConditionSimple()) {
    7814:	84 99       	sbic	0x10, 4	; 16
    7816:	e7 ce       	rjmp	.-562    	; 0x75e6 <.L70>

00007818 <.Loc.537>:
	    if (stayinloader > 1) stayinloader-=2;
    7818:	80 91 6f 00 	lds	r24, 0x006F	; 0x80006f <stayinloader>

0000781c <.Loc.539>:
    781c:	82 30       	cpi	r24, 0x02	; 2
    781e:	08 f4       	brcc	.+2      	; 0x7822 <.Loc.540>

00007820 <L0^A>:
    7820:	e2 ce       	rjmp	.-572    	; 0x75e6 <.L70>

00007822 <.Loc.540>:
    7822:	80 91 6f 00 	lds	r24, 0x006F	; 0x80006f <stayinloader>
    7826:	82 50       	subi	r24, 0x02	; 2
    7828:	dc ce       	rjmp	.-584    	; 0x75e2 <.L110>

0000782a <eeprom_read_byte>:
    782a:	e1 99       	sbic	0x1c, 1	; 28
    782c:	fe cf       	rjmp	.-4      	; 0x782a <eeprom_read_byte>
    782e:	9f bb       	out	0x1f, r25	; 31
    7830:	8e bb       	out	0x1e, r24	; 30
    7832:	e0 9a       	sbi	0x1c, 0	; 28
    7834:	99 27       	eor	r25, r25
    7836:	8d b3       	in	r24, 0x1d	; 29
    7838:	08 95       	ret

0000783a <eeprom_write_byte>:
    783a:	26 2f       	mov	r18, r22

0000783c <eeprom_write_r18>:
    783c:	e1 99       	sbic	0x1c, 1	; 28
    783e:	fe cf       	rjmp	.-4      	; 0x783c <eeprom_write_r18>
    7840:	9f bb       	out	0x1f, r25	; 31
    7842:	8e bb       	out	0x1e, r24	; 30
    7844:	2d bb       	out	0x1d, r18	; 29
    7846:	0f b6       	in	r0, 0x3f	; 63
    7848:	f8 94       	cli
    784a:	e2 9a       	sbi	0x1c, 2	; 28
    784c:	e1 9a       	sbi	0x1c, 1	; 28
    784e:	0f be       	out	0x3f, r0	; 63
    7850:	01 96       	adiw	r24, 0x01	; 1
    7852:	08 95       	ret

00007854 <_exit>:
    7854:	f8 94       	cli

00007856 <__stop_program>:
    7856:	ff cf       	rjmp	.-2      	; 0x7856 <__stop_program>
